(lp0
(lp1
S'me'
p2
aS'doublyLinkedList.sk_8_37.cnf'
p3
aF26.6843
aI0
aI0
aa(lp4
g2
ag3
aF32.6321
aI5
aI351
aa(lp5
g2
ag3
aF32.8323
aI5
aI351
aa(lp6
g2
ag3
aF33.0442
aI5
aI351
aa(lp7
g2
ag3
aF33.2427
aI5
aI351
aa(lp8
g2
ag3
aF33.4651
aI6
aI759
aa(lp9
g2
ag3
aF33.6578
aI6
aI759
aa(lp10
g2
ag3
aF39.3165
aI12
aI1052
aa(lp11
g2
ag3
aF39.5122
aI12
aI1052
aa(lp12
g2
ag3
aF39.7035
aI12
aI1052
aa(lp13
g2
ag3
aF39.9116
aI14
aI1062
aa(lp14
g2
ag3
aF40.1116
aI14
aI1062
aa(lp15
g2
ag3
aF40.3089
aI16
aI1080
aa(lp16
g2
ag3
aF40.5188
aI20
aI1080
aa(lp17
g2
ag3
aF40.7368
aI23
aI1080
aa(lp18
g2
ag3
aF40.9358
aI26
aI1080
aa(lp19
g2
ag3
aF41.1278
aI27
aI1080
aa(lp20
g2
ag3
aF41.3366
aI31
aI1080
aa(lp21
g2
ag3
aF41.54
aI33
aI1080
aa(lp22
g2
ag3
aF41.7403
aI36
aI1080
aa(lp23
g2
ag3
aF41.9459
aI40
aI1080
aa(lp24
g2
ag3
aF42.1506
aI43
aI1080
aa(lp25
g2
ag3
aF42.3484
aI44
aI1080
aa(lp26
g2
ag3
aF42.5309
aI47
aI1080
aa(lp27
g2
ag3
aF42.7305
aI47
aI1080
aa(lp28
g2
ag3
aF42.9213
aI48
aI1080
aa(lp29
g2
ag3
aF43.1301
aI50
aI1080
aa(lp30
g2
ag3
aF43.3256
aI52
aI1080
aa(lp31
g2
ag3
aF43.5391
aI53
aI1080
aa(lp32
g2
ag3
aF43.7245
aI53
aI1080
aa(lp33
g2
ag3
aF43.9482
aI57
aI1080
aa(lp34
g2
ag3
aF44.1263
aI57
aI1080
aa(lp35
g2
ag3
aF44.3366
aI58
aI1080
aa(lp36
g2
ag3
aF44.5376
aI60
aI1080
aa(lp37
g2
ag3
aF44.7483
aI61
aI1080
aa(lp38
g2
ag3
aF44.9697
aI63
aI1080
aa(lp39
g2
ag3
aF45.9304
aI71
aI1080
aa(lp40
g2
ag3
aF46.1347
aI73
aI1080
aa(lp41
g2
ag3
aF46.3272
aI75
aI1080
aa(lp42
g2
ag3
aF46.5333
aI75
aI1080
aa(lp43
g2
ag3
aF46.6967
aI77
aI1080
aa(lp44
g2
ag3
aF46.895
aI78
aI1080
aa(lp45
g2
ag3
aF47.0996
aI80
aI1080
aa(lp46
g2
ag3
aF48.8863
aI95
aI1082
aa(lp47
g2
ag3
aF49.0864
aI96
aI1082
aa(lp48
g2
ag3
aF49.2832
aI97
aI1082
aa(lp49
g2
ag3
aF49.4786
aI97
aI1082
aa(lp50
g2
ag3
aF49.6827
aI98
aI1082
aa(lp51
g2
ag3
aF49.8849
aI98
aI1082
aa(lp52
g2
ag3
aF50.0848
aI100
aI1082
aa(lp53
g2
ag3
aF50.2794
aI101
aI1082
aa(lp54
g2
ag3
aF50.5023
aI103
aI1097
aa(lp55
g2
ag3
aF50.7334
aI112
aI1097
aa(lp56
g2
ag3
aF50.9379
aI112
aI1097
aa(lp57
g2
ag3
aF51.1419
aI112
aI1097
aa(lp58
g2
ag3
aF51.3659
aI116
aI1097
aa(lp59
g2
ag3
aF51.5707
aI117
aI1097
aa(lp60
g2
ag3
aF51.7644
aI120
aI1097
aa(lp61
g2
ag3
aF51.8985
aI120
aI1097
aa(lp62
g2
ag3
aF52.0754
aI123
aI1097
aa(lp63
g2
ag3
aF52.2791
aI125
aI1097
aa(lp64
g2
ag3
aF52.4774
aI125
aI1097
aa(lp65
g2
ag3
aF52.681
aI125
aI1097
aa(lp66
g2
ag3
aF52.8826
aI128
aI1097
aa(lp67
g2
ag3
aF53.0953
aI129
aI1097
aa(lp68
g2
ag3
aF53.2546
aI130
aI1097
aa(lp69
g2
ag3
aF53.4154
aI131
aI1097
aa(lp70
g2
ag3
aF53.6167
aI132
aI1097
aa(lp71
g2
ag3
aF53.8402
aI136
aI1097
aa(lp72
g2
ag3
aF54.0457
aI136
aI1097
aa(lp73
g2
ag3
aF54.1936
aI136
aI1097
aa(lp74
g2
ag3
aF54.3837
aI136
aI1097
aa(lp75
g2
ag3
aF54.5793
aI137
aI1097
aa(lp76
g2
ag3
aF54.7951
aI139
aI1097
aa(lp77
g2
ag3
aF54.9666
aI141
aI1097
aa(lp78
g2
ag3
aF55.1794
aI144
aI1097
aa(lp79
g2
ag3
aF55.3817
aI147
aI1097
aa(lp80
g2
ag3
aF55.5811
aI148
aI1097
aa(lp81
g2
ag3
aF55.7736
aI149
aI1097
aa(lp82
g2
ag3
aF55.9878
aI151
aI1097
aa(lp83
g2
ag3
aF56.2073
aI153
aI1097
aa(lp84
g2
ag3
aF56.4122
aI153
aI1097
aa(lp85
g2
ag3
aF56.5871
aI154
aI1097
aa(lp86
g2
ag3
aF56.7818
aI154
aI1097
aa(lp87
g2
ag3
aF56.9873
aI155
aI1097
aa(lp88
g2
ag3
aF57.1749
aI155
aI1097
aa(lp89
g2
ag3
aF57.3875
aI157
aI1097
aa(lp90
g2
ag3
aF57.5829
aI157
aI1097
aa(lp91
g2
ag3
aF57.7783
aI158
aI1097
aa(lp92
g2
ag3
aF57.9903
aI161
aI1097
aa(lp93
g2
ag3
aF58.1504
aI162
aI1097
aa(lp94
g2
ag3
aF58.3158
aI162
aI1097
aa(lp95
g2
ag3
aF58.5167
aI164
aI1097
aa(lp96
g2
ag3
aF58.7064
aI166
aI1097
aa(lp97
g2
ag3
aF58.9167
aI166
aI1097
aa(lp98
g2
ag3
aF59.1068
aI167
aI1097
aa(lp99
g2
ag3
aF59.2649
aI167
aI1097
aa(lp100
g2
ag3
aF59.4669
aI168
aI1097
aa(lp101
g2
ag3
aF59.6678
aI170
aI1097
aa(lp102
g2
ag3
aF59.8735
aI172
aI1097
aa(lp103
g2
ag3
aF93.1998
aI172
aI1097
aa(lp104
g2
ag3
aF93.4028
aI172
aI1097
aa(lp105
g2
ag3
aF93.6226
aI172
aI1097
aa(lp106
g2
ag3
aF93.8177
aI173
aI1097
aa(lp107
g2
ag3
aF94.0418
aI173
aI1097
aa(lp108
g2
ag3
aF94.2103
aI173
aI1097
aa(lp109
g2
ag3
aF94.4148
aI173
aI1097
aa(lp110
g2
ag3
aF94.6343
aI174
aI1097
aa(lp111
g2
ag3
aF94.8346
aI174
aI1097
aa(lp112
g2
ag3
aF95.0326
aI174
aI1097
aa(lp113
g2
ag3
aF95.2297
aI174
aI1097
aa(lp114
g2
ag3
aF95.4431
aI175
aI1097
aa(lp115
g2
ag3
aF95.6627
aI175
aI1097
aa(lp116
g2
ag3
aF95.8666
aI175
aI1097
aa(lp117
g2
ag3
aF96.062
aI175
aI1097
aa(lp118
g2
ag3
aF96.2763
aI175
aI1097
aa(lp119
g2
ag3
aF96.46
aI178
aI1097
aa(lp120
g2
ag3
aF96.661
aI178
aI1097
aa(lp121
g2
ag3
aF96.8226
aI178
aI1097
aa(lp122
g2
ag3
aF97.0173
aI179
aI1097
aa(lp123
g2
ag3
aF97.2224
aI179
aI1097
aa(lp124
g2
ag3
aF97.3416
aI180
aI1097
aa(lp125
g2
ag3
aF97.5439
aI181
aI1097
aa(lp126
g2
ag3
aF97.7423
aI184
aI1097
aa(lp127
g2
ag3
aF97.9375
aI184
aI1097
aa(lp128
g2
ag3
aF98.0468
aI186
aI1097
aa(lp129
g2
ag3
aF98.2501
aI186
aI1097
aa(lp130
g2
ag3
aF98.433
aI187
aI1097
aa(lp131
g2
ag3
aF98.6351
aI189
aI1097
aa(lp132
g2
ag3
aF98.8474
aI189
aI1097
aa(lp133
g2
ag3
aF99.0269
aI191
aI1097
aa(lp134
g2
ag3
aF99.1836
aI194
aI1097
aa(lp135
g2
ag3
aF99.3482
aI194
aI1097
aa(lp136
g2
ag3
aF99.5379
aI194
aI1097
aa(lp137
g2
ag3
aF99.7173
aI195
aI1097
aa(lp138
g2
ag3
aF99.905
aI195
aI1097
aa(lp139
g2
ag3
aF100.091
aI196
aI1097
aa(lp140
g2
ag3
aF100.293
aI196
aI1097
aa(lp141
g2
ag3
aF100.437
aI196
aI1097
aa(lp142
g2
ag3
aF100.625
aI197
aI1097
aa(lp143
g2
ag3
aF100.833
aI198
aI1097
aa(lp144
g2
ag3
aF101.035
aI199
aI1097
aa(lp145
g2
ag3
aF101.236
aI200
aI1097
aa(lp146
g2
ag3
aF101.439
aI200
aI1097
aa(lp147
g2
ag3
aF101.6
aI202
aI1097
aa(lp148
g2
ag3
aF101.763
aI203
aI1097
aa(lp149
g2
ag3
aF101.959
aI205
aI1097
aa(lp150
g2
ag3
aF102.159
aI207
aI1097
aa(lp151
g2
ag3
aF102.321
aI207
aI1097
aa(lp152
g2
ag3
aF102.507
aI208
aI1097
aa(lp153
g2
ag3
aF102.714
aI208
aI1097
aa(lp154
g2
ag3
aF102.931
aI208
aI1097
aa(lp155
g2
ag3
aF103.047
aI208
aI1097
aa(lp156
g2
ag3
aF103.249
aI209
aI1097
aa(lp157
g2
ag3
aF103.458
aI211
aI1097
aa(lp158
g2
ag3
aF103.615
aI213
aI1097
aa(lp159
g2
ag3
aF103.821
aI214
aI1097
aa(lp160
g2
ag3
aF104.031
aI214
aI1097
aa(lp161
g2
ag3
aF104.228
aI216
aI1097
aa(lp162
g2
ag3
aF104.393
aI217
aI1097
aa(lp163
g2
ag3
aF104.545
aI217
aI1097
aa(lp164
g2
ag3
aF104.718
aI217
aI1097
aa(lp165
g2
ag3
aF104.924
aI218
aI1097
aa(lp166
g2
ag3
aF105.125
aI220
aI1097
aa(lp167
g2
ag3
aF105.317
aI221
aI1097
aa(lp168
g2
ag3
aF105.491
aI221
aI1097
aa(lp169
g2
ag3
aF105.682
aI221
aI1097
aa(lp170
g2
ag3
aF105.872
aI221
aI1097
aa(lp171
g2
ag3
aF106.016
aI221
aI1097
aa(lp172
g2
ag3
aF106.207
aI222
aI1097
aa(lp173
g2
ag3
aF106.402
aI222
aI1097
aa(lp174
g2
ag3
aF106.571
aI225
aI1097
aa(lp175
g2
ag3
aF106.771
aI227
aI1097
aa(lp176
g2
ag3
aF106.953
aI228
aI1097
aa(lp177
g2
ag3
aF107.161
aI229
aI1097
aa(lp178
g2
ag3
aF107.352
aI229
aI1097
aa(lp179
g2
ag3
aF107.505
aI229
aI1097
aa(lp180
g2
ag3
aF107.717
aI229
aI1097
aa(lp181
g2
ag3
aF107.914
aI229
aI1097
aa(lp182
g2
ag3
aF108.069
aI229
aI1097
aa(lp183
g2
ag3
aF108.259
aI230
aI1097
aa(lp184
g2
ag3
aF108.475
aI230
aI1097
aa(lp185
g2
ag3
aF108.676
aI230
aI1097
aa(lp186
g2
ag3
aF108.871
aI232
aI1097
aa(lp187
g2
ag3
aF109.073
aI233
aI1097
aa(lp188
g2
ag3
aF109.282
aI233
aI1097
aa(lp189
g2
ag3
aF109.47
aI234
aI1097
aa(lp190
g2
ag3
aF109.665
aI235
aI1097
aa(lp191
g2
ag3
aF109.848
aI236
aI1097
aa(lp192
g2
ag3
aF110.056
aI236
aI1097
aa(lp193
g2
ag3
aF110.252
aI236
aI1097
aa(lp194
g2
ag3
aF110.407
aI238
aI1097
aa(lp195
g2
ag3
aF110.604
aI238
aI1097
aa(lp196
g2
ag3
aF110.785
aI238
aI1097
aa(lp197
g2
ag3
aF110.989
aI238
aI1097
aa(lp198
g2
ag3
aF111.134
aI238
aI1097
aa(lp199
g2
ag3
aF111.32
aI238
aI1097
aa(lp200
g2
ag3
aF111.511
aI238
aI1097
aa(lp201
g2
ag3
aF111.707
aI241
aI1097
aa(lp202
g2
ag3
aF111.907
aI244
aI1097
aa(lp203
S'qs'
p204
ag3
aF7.24949
aI6
aI41
aa(lp205
g204
ag3
aF10.4435
aI11
aI48
aa(lp206
g204
ag3
aF13.3762
aI14
aI55
aa(lp207
g204
ag3
aF16.2134
aI20
aI55
aa(lp208
g204
ag3
aF19.1872
aI25
aI81
aa(lp209
g204
ag3
aF22.1421
aI32
aI81
aa(lp210
g204
ag3
aF24.7319
aI38
aI81
aa(lp211
g204
ag3
aF26.6019
aI42
aI81
aa(lp212
g204
ag3
aF28.4423
aI46
aI81
aa(lp213
g204
ag3
aF30.7394
aI49
aI85
aa(lp214
g204
ag3
aF31.6659
aI49
aI85
aa(lp215
g204
ag3
aF32.699
aI49
aI85
aa(lp216
g204
ag3
aF34.1786
aI51
aI85
aa(lp217
g204
ag3
aF36.6075
aI56
aI85
aa(lp218
g204
ag3
aF39.2016
aI62
aI85
aa(lp219
g204
ag3
aF40.6588
aI64
aI85
aa(lp220
g204
ag3
aF42.312
aI67
aI85
aa(lp221
g204
ag3
aF43.8897
aI70
aI85
aa(lp222
g204
ag3
aF47.8498
aI77
aI93
aa(lp223
g204
ag3
aF50.3906
aI83
aI93
aa(lp224
g204
ag3
aF53.2819
aI88
aI93
aa(lp225
g204
ag3
aF55.1544
aI92
aI93
aa(lp226
g204
ag3
aF57.3664
aI97
aI93
aa(lp227
g204
ag3
aF59.2684
aI101
aI93
aa(lp228
g204
ag3
aF61.8337
aI107
aI93
aa(lp229
g204
ag3
aF64.4249
aI113
aI93
aa(lp230
g204
ag3
aF66.9509
aI119
aI93
aa(lp231
g204
ag3
aF69.5917
aI124
aI102
aa(lp232
g204
ag3
aF72.4644
aI131
aI102
aa(lp233
g204
ag3
aF75.0354
aI137
aI102
aa(lp234
g204
ag3
aF76.9442
aI141
aI103
aa(lp235
g204
ag3
aF79.1701
aI146
aI103
aa(lp236
g204
ag3
aF81.3834
aI151
aI103
aa(lp237
g204
ag3
aF83.9497
aI155
aI103
aa(lp238
g204
ag3
aF87.2322
aI163
aI103
aa(lp239
g204
ag3
aF89.0988
aI167
aI103
aa(lp240
g204
ag3
aF92.3599
aI175
aI103
aa(lp241
g204
ag3
aF93.9183
aI178
aI103
aa(lp242
g204
ag3
aF96.4784
aI184
aI103
aa(lp243
g204
ag3
aF99.3286
aI189
aI103
aa(lp244
g204
ag3
aF101.531
aI193
aI110
aa(lp245
g204
ag3
aF102.332
aI193
aI110
aa(lp246
g204
ag3
aF103.137
aI193
aI110
aa(lp247
g204
ag3
aF103.921
aI193
aI110
aa(lp248
g204
ag3
aF104.626
aI193
aI110
aa(lp249
g204
ag3
aF105.984
aI195
aI110
aa(lp250
g204
ag3
aF107.838
aI198
aI110
aa(lp251
g204
ag3
aF109.183
aI199
aI110
aa(lp252
g204
ag3
aF110.619
aI201
aI110
aa(lp253
g204
ag3
aF112.577
aI205
aI110
aa(lp254
g204
ag3
aF114.842
aI209
aI110
aa(lp255
g204
ag3
aF117.505
aI215
aI110
aa(lp256
g204
ag3
aF119.07
aI218
aI110
aa(lp257
g204
ag3
aF121.061
aI222
aI110
aa(lp258
g204
ag3
aF124.36
aI229
aI110
aa(lp259
g204
ag3
aF126.93
aI235
aI110
aa(lp260
g204
ag3
aF129.845
aI240
aI110
aa(lp261
g204
ag3
aF131.454
aI243
aI110
aa(lp262
g204
ag3
aF132.364
aI244
aI110
aa(lp263
g204
ag3
aF133.979
aI247
aI110
aa(lp264
g204
ag3
aF137.037
aI254
aI110
aa(lp265
g204
ag3
aF138.705
aI257
aI110
aa(lp266
g204
ag3
aF142.736
aI265
aI115
aa(lp267
g204
ag3
aF143.19
aI265
aI115
aa(lp268
g204
ag3
aF143.643
aI265
aI115
aa(lp269
g204
ag3
aF144.096
aI265
aI115
aa(lp270
g204
ag3
aF144.57
aI265
aI115
aa(lp271
g204
ag3
aF145.037
aI265
aI115
aa(lp272
g204
ag3
aF145.486
aI265
aI115
aa(lp273
g204
ag3
aF146.371
aI265
aI115
aa(lp274
g204
ag3
aF148.896
aI271
aI115
aa(lp275
g204
ag3
aF150.768
aI275
aI115
aa(lp276
g204
ag3
aF153.292
aI281
aI118
aa(lp277
g204
ag3
aF155.573
aI286
aI118
aa(lp278
g204
ag3
aF157.439
aI290
aI118
aa(lp279
g204
ag3
aF159.308
aI294
aI118
aa(lp280
g204
ag3
aF160.523
aI296
aI118
aa(lp281
g204
ag3
aF162.07
aI297
aI118
aa(lp282
g204
ag3
aF164.316
aI302
aI118
aa(lp283
g204
ag3
aF165.53
aI304
aI118
aa(lp284
g204
ag3
aF167.349
aI306
aI118
aa(lp285
g204
ag3
aF169.883
aI312
aI118
aa(lp286
g204
ag3
aF172.097
aI317
aI118
aa(lp287
g204
ag3
aF174.994
aI324
aI118
aa(lp288
g204
ag3
aF177.581
aI328
aI118
aa(lp289
g204
ag3
aF178.905
aI330
aI118
aa(lp290
g204
ag3
aF180.399
aI333
aI118
aa(lp291
g204
ag3
aF182.579
aI338
aI118
aa(lp292
g204
ag3
aF184.1
aI341
aI118
aa(lp293
g204
ag3
aF186.403
aI346
aI118
aa(lp294
g204
ag3
aF187.886
aI348
aI118
aa(lp295
g204
ag3
aF189.87
aI351
aI118
aa(lp296
g204
ag3
aF191.033
aI352
aI118
aa(lp297
g204
ag3
aF193.393
aI356
aI118
aa(lp298
g204
ag3
aF196.281
aI363
aI118
aa(lp299
g204
ag3
aF198.153
aI367
aI118
aa(lp300
g204
ag3
aF199.711
aI370
aI118
aa(lp301
g204
ag3
aF202.242
aI376
aI118
aa(lp302
g204
ag3
aF204.242
aI379
aI120
aa(lp303
g204
ag3
aF205.479
aI381
aI120
aa(lp304
g204
ag3
aF208.202
aI386
aI120
aa(lp305
g204
ag3
aF210.572
aI391
aI120
aa(lp306
g204
ag3
aF212.755
aI396
aI120
aa(lp307
g204
ag3
aF214.344
aI399
aI120
aa(lp308
g204
ag3
aF215.145
aI400
aI120
aa(lp309
g204
ag3
aF218.193
aI407
aI120
aa(lp310
g204
ag3
aF220.378
aI412
aI120
aa(lp311
g204
ag3
aF222.593
aI417
aI120
aa(lp312
g204
ag3
aF225.601
aI423
aI120
aa(lp313
g204
ag3
aF228.193
aI429
aI120
aa(lp314
g204
ag3
aF230.435
aI434
aI120
aa(lp315
g204
ag3
aF232.991
aI440
aI120
aa(lp316
g204
ag3
aF235.899
aI447
aI120
aa(lp317
g204
ag3
aF237.89
aI451
aI120
aa(lp318
g204
ag3
aF240.076
aI455
aI120
aa(lp319
g204
ag3
aF242.633
aI461
aI120
aa(lp320
g204
ag3
aF244.533
aI465
aI120
aa(lp321
g204
ag3
aF247.438
aI472
aI120
aa(lp322
g204
ag3
aF249.968
aI478
aI120
aa(lp323
g204
ag3
aF252.196
aI483
aI120
aa(lp324
g204
ag3
aF255.237
aI489
aI120
aa(lp325
g204
ag3
aF257.86
aI495
aI120
aa(lp326
g204
ag3
aF259.779
aI499
aI120
aa(lp327
g204
ag3
aF262.069
aI504
aI120
aa(lp328
g204
ag3
aF264.736
aI510
aI120
aa(lp329
g204
ag3
aF269.016
aI519
aI120
aa(lp330
g204
ag3
aF271.733
aI525
aI120
aa(lp331
g204
ag3
aF274.0
aI530
aI120
aa(lp332
g204
ag3
aF275.662
aI533
aI120
aa(lp333
g204
ag3
aF277.642
aI537
aI120
aa(lp334
g204
ag3
aF279.14
aI539
aI120
aa(lp335
g204
ag3
aF281.09
aI543
aI120
aa(lp336
g204
ag3
aF283.236
aI547
aI120
aa(lp337
g204
ag3
aF286.071
aI552
aI120
aa(lp338
g204
ag3
aF287.63
aI555
aI120
aa(lp339
g204
ag3
aF290.162
aI561
aI120
aa(lp340
g204
ag3
aF291.168
aI562
aI120
aa(lp341
g204
ag3
aF293.395
aI567
aI120
aa(lp342
g204
ag3
aF296.035
aI573
aI120
aa(lp343
g204
ag3
aF299.569
aI580
aI120
aa(lp344
g204
ag3
aF301.244
aI583
aI120
aa(lp345
g204
ag3
aF303.267
aI587
aI120
aa(lp346
g204
ag3
aF306.146
aI593
aI120
aa(lp347
g204
ag3
aF309.588
aI601
aI120
aa(lp348
g204
ag3
aF312.126
aI606
aI120
aa(lp349
g204
ag3
aF314.706
aI611
aI120
aa(lp350
g204
ag3
aF317.269
aI617
aI120
aa(lp351
g204
ag3
aF319.799
aI622
aI120
aa(lp352
g204
ag3
aF322.621
aI628
aI120
aa(lp353
g204
ag3
aF324.934
aI633
aI120
aa(lp354
g204
ag3
aF326.951
aI637
aI120
aa(lp355
g204
ag3
aF329.001
aI641
aI120
aa(lp356
g204
ag3
aF331.84
aI646
aI120
aa(lp357
g204
ag3
aF333.396
aI649
aI120
aa(lp358
g204
ag3
aF335.657
aI654
aI120
aa(lp359
g204
ag3
aF338.67
aI661
aI120
aa(lp360
g204
ag3
aF340.354
aI664
aI120
aa(lp361
g204
ag3
aF343.618
aI672
aI120
aa(lp362
g204
ag3
aF346.473
aI678
aI120
aa(lp363
g204
ag3
aF348.908
aI683
aI120
aa(lp364
g204
ag3
aF351.524
aI689
aI120
aa(lp365
g204
ag3
aF354.446
aI696
aI120
aa(lp366
g204
ag3
aF356.078
aI699
aI120
aa(lp367
g204
ag3
aF358.14
aI703
aI120
aa(lp368
g204
ag3
aF361.214
aI709
aI120
aa(lp369
g204
ag3
aF363.088
aI713
aI120
aa(lp370
g204
ag3
aF365.935
aI716
aI163
aa(lp371
g204
ag3
aF368.186
aI721
aI163
aa(lp372
g204
ag3
aF370.314
aI725
aI163
aa(lp373
g204
ag3
aF373.237
aI731
aI163
aa(lp374
g204
ag3
aF375.871
aI737
aI163
aa(lp375
g204
ag3
aF379.66
aI746
aI163
aa(lp376
g204
ag3
aF382.658
aI753
aI163
aa(lp377
g204
ag3
aF385.325
aI759
aI163
aa(lp378
g204
ag3
aF387.582
aI764
aI163
aa(lp379
g204
ag3
aF390.246
aI770
aI163
aa(lp380
g204
ag3
aF392.846
aI775
aI163
aa(lp381
g204
ag3
aF396.098
aI783
aI163
aa(lp382
g204
ag3
aF399.368
aI791
aI163
aa(lp383
g204
ag3
aF402.335
aI798
aI163
aa(lp384
g204
ag3
aF404.701
aI803
aI163
aa(lp385
g204
ag3
aF407.31
aI808
aI163
aa(lp386
g204
ag3
aF410.263
aI815
aI163
aa(lp387
g204
ag3
aF413.005
aI821
aI163
aa(lp388
g204
ag3
aF416.306
aI829
aI163
aa(lp389
g204
ag3
aF418.653
aI834
aI163
aa(lp390
g204
ag3
aF420.946
aI839
aI163
aa(lp391
g204
ag3
aF424.12
aI846
aI163
aa(lp392
g204
ag3
aF427.347
aI854
aI163
aa(lp393
g204
ag3
aF430.287
aI861
aI163
aa(lp394
g204
ag3
aF431.474
aI863
aI163
aa(lp395
g204
ag3
aF433.418
aI867
aI163
aa(lp396
g204
ag3
aF435.95
aI873
aI163
aa(lp397
g204
ag3
aF439.456
aI880
aI163
aa(lp398
g204
ag3
aF442.13
aI886
aI163
aa(lp399
g204
ag3
aF443.981
aI890
aI163
aa(lp400
g204
ag3
aF445.829
aI894
aI163
aa(lp401
g204
ag3
aF447.41
aI897
aI163
aa(lp402
g204
ag3
aF449.659
aI902
aI163
aa(lp403
g204
ag3
aF452.913
aI908
aI163
aa(lp404
g204
ag3
aF454.792
aI912
aI163
aa(lp405
g204
ag3
aF457.674
aI919
aI163
aa(lp406
g204
ag3
aF460.276
aI925
aI163
aa(lp407
g204
ag3
aF462.591
aI930
aI163
aa(lp408
g204
ag3
aF465.583
aI937
aI163
aa(lp409
g204
ag3
aF468.533
aI943
aI163
aa(lp410
g204
ag3
aF471.095
aI949
aI163
aa(lp411
g204
ag3
aF473.705
aI955
aI163
aa(lp412
g204
ag3
aF475.336
aI958
aI163
aa(lp413
g204
ag3
aF477.664
aI963
aI163
aa(lp414
g204
ag3
aF479.848
aI968
aI163
aa(lp415
g204
ag3
aF482.763
aI975
aI163
aa(lp416
g204
ag3
aF484.894
aI979
aI163
aa(lp417
g204
ag3
aF488.157
aI987
aI163
aa(lp418
g204
ag3
aF491.031
aI994
aI163
aa(lp419
g204
ag3
aF492.869
aI998
aI163
aa(lp420
g204
ag3
aF495.527
aI1004
aI163
aa(lp421
g204
ag3
aF498.697
aI1010
aI163
aa(lp422
g204
ag3
aF501.301
aI1016
aI163
aa(lp423
g204
ag3
aF504.201
aI1023
aI163
aa(lp424
g204
ag3
aF506.197
aI1027
aI163
aa(lp425
g204
ag3
aF508.4
aI1032
aI163
aa(lp426
g204
ag3
aF511.8
aI1040
aI163
aa(lp427
g204
ag3
aF515.952
aI1049
aI163
aa(lp428
g204
ag3
aF518.701
aI1055
aI163
aa(lp429
g204
ag3
aF521.339
aI1061
aI163
aa(lp430
g204
ag3
aF523.224
aI1065
aI163
aa(lp431
g204
ag3
aF525.33
aI1069
aI163
aa(lp432
g204
ag3
aF526.534
aI1071
aI163
aa(lp433
g204
ag3
aF527.984
aI1073
aI163
aa(lp434
g204
ag3
aF530.626
aI1078
aI163
aa(lp435
g204
ag3
aF532.343
aI1081
aI163
aa(lp436
g204
ag3
aF535.019
aI1087
aI163
aa(lp437
g204
ag3
aF536.9
aI1091
aI163
aa(lp438
g204
ag3
aF539.133
aI1096
aI163
aa(lp439
g204
ag3
aF541.126
aI1100
aI163
aa(lp440
g204
ag3
aF543.066
aI1104
aI163
aa(lp441
g204
ag3
aF545.029
aI1107
aI163
aa(lp442
g204
ag3
aF548.442
aI1115
aI163
aa(lp443
g204
ag3
aF550.706
aI1120
aI163
aa(lp444
g204
ag3
aF553.043
aI1125
aI163
aa(lp445
g204
ag3
aF554.957
aI1129
aI163
aa(lp446
g204
ag3
aF557.421
aI1134
aI163
aa(lp447
g204
ag3
aF560.654
aI1140
aI163
aa(lp448
g204
ag3
aF563.807
aI1147
aI163
aa(lp449
g204
ag3
aF566.925
aI1154
aI163
aa(lp450
g204
ag3
aF569.771
aI1160
aI163
aa(lp451
g204
ag3
aF572.03
aI1165
aI163
aa(lp452
g204
ag3
aF574.344
aI1170
aI163
aa(lp453
g204
ag3
aF577.564
aI1176
aI163
aa(lp454
g204
ag3
aF580.859
aI1184
aI163
aa(lp455
g204
ag3
aF583.662
aI1190
aI163
aa(lp456
g204
ag3
aF586.243
aI1196
aI163
aa(lp457
g204
ag3
aF588.937
aI1202
aI163
aa(lp458
g204
ag3
aF590.595
aI1205
aI163
aa(lp459
g204
ag3
aF592.941
aI1210
aI163
aa(lp460
g204
ag3
aF594.973
aI1214
aI163
aa(lp461
g204
ag3
aF597.632
aI1220
aI163
aa(lp462
g204
ag3
aF599.518
aI1224
aI163
aa(lp463
g204
ag3
aF602.502
aI1231
aI163
aa(lp464
g204
ag3
aF605.215
aI1236
aI163
aa(lp465
g204
ag3
aF607.586
aI1241
aI163
aa(lp466
g204
ag3
aF611.224
aI1250
aI163
aa(lp467
g204
ag3
aF613.414
aI1255
aI163
aa(lp468
g204
ag3
aF615.461
aI1259
aI163
aa(lp469
g204
ag3
aF618.89
aI1267
aI163
aa(lp470
g204
ag3
aF621.808
aI1273
aI163
aa(lp471
g204
ag3
aF625.097
aI1281
aI163
aa(lp472
g204
ag3
aF626.714
aI1284
aI163
aa(lp473
g204
ag3
aF628.054
aI1286
aI163
aa(lp474
g204
ag3
aF630.664
aI1292
aI163
aa(lp475
g204
ag3
aF633.293
aI1298
aI163
aa(lp476
g204
ag3
aF636.058
aI1304
aI163
aa(lp477
g204
ag3
aF637.369
aI1305
aI170
aa(lp478
g204
ag3
aF637.871
aI1305
aI170
aa(lp479
g204
ag3
aF638.353
aI1305
aI170
aa(lp480
g204
ag3
aF638.861
aI1305
aI170
aa(lp481
g204
ag3
aF639.369
aI1305
aI170
aa(lp482
g204
ag3
aF639.885
aI1305
aI170
aa(lp483
g204
ag3
aF640.4
aI1305
aI170
aa(lp484
g204
ag3
aF640.918
aI1305
aI170
aa(lp485
g204
ag3
aF641.407
aI1305
aI170
aa(lp486
g204
ag3
aF641.925
aI1305
aI170
aa(lp487
g204
ag3
aF642.427
aI1305
aI170
aa(lp488
g204
ag3
aF642.923
aI1305
aI170
aa(lp489
g204
ag3
aF643.433
aI1305
aI170
aa(lp490
g204
ag3
aF643.94
aI1305
aI170
aa(lp491
g204
ag3
aF644.459
aI1305
aI170
aa(lp492
g204
ag3
aF644.955
aI1305
aI170
aa(lp493
g204
ag3
aF645.465
aI1305
aI170
aa(lp494
g204
ag3
aF645.978
aI1305
aI170
aa(lp495
g204
ag3
aF646.487
aI1305
aI170
aa(lp496
g204
ag3
aF647.005
aI1305
aI170
aa(lp497
g204
ag3
aF647.517
aI1305
aI170
aa(lp498
g204
ag3
aF648.026
aI1305
aI170
aa(lp499
g204
ag3
aF648.541
aI1305
aI170
aa(lp500
g204
ag3
aF649.05
aI1305
aI170
aa(lp501
g204
ag3
aF649.567
aI1305
aI170
aa(lp502
g204
ag3
aF650.078
aI1305
aI170
aa(lp503
g204
ag3
aF650.596
aI1305
aI170
aa(lp504
g204
ag3
aF651.119
aI1305
aI170
aa(lp505
g204
ag3
aF651.631
aI1305
aI170
aa(lp506
g204
ag3
aF652.134
aI1305
aI170
aa(lp507
g204
ag3
aF652.776
aI1305
aI170
aa(lp508
g204
ag3
aF653.293
aI1305
aI170
aa(lp509
g204
ag3
aF653.809
aI1305
aI170
aa(lp510
g204
ag3
aF654.327
aI1305
aI170
aa(lp511
g204
ag3
aF654.818
aI1305
aI170
aa(lp512
g204
ag3
aF656.358
aI1308
aI170
aa(lp513
g204
ag3
aF658.967
aI1314
aI170
aa(lp514
g204
ag3
aF661.254
aI1319
aI170
aa(lp515
g204
ag3
aF662.255
aI1320
aI170
aa(lp516
g204
ag3
aF664.463
aI1325
aI170
aa(lp517
g204
ag3
aF668.088
aI1333
aI170
aa(lp518
g204
ag3
aF669.737
aI1336
aI170
aa(lp519
g204
ag3
aF671.814
aI1340
aI170
aa(lp520
g204
ag3
aF674.447
aI1346
aI170
aa(lp521
g204
ag3
aF676.132
aI1349
aI170
aa(lp522
g204
ag3
aF678.128
aI1353
aI170
aa(lp523
g204
ag3
aF679.68
aI1356
aI170
aa(lp524
g204
ag3
aF682.032
aI1361
aI170
aa(lp525
g204
ag3
aF684.483
aI1365
aI170
aa(lp526
g204
ag3
aF686.502
aI1369
aI170
aa(lp527
g204
ag3
aF687.476
aI1370
aI170
aa(lp528
g204
ag3
aF690.146
aI1376
aI170
aa(lp529
g204
ag3
aF692.436
aI1381
aI170
aa(lp530
g204
ag3
aF694.73
aI1386
aI170
aa(lp531
g204
ag3
aF696.994
aI1391
aI170
aa(lp532
g204
ag3
aF699.659
aI1397
aI170
aa(lp533
g204
ag3
aF702.337
aI1403
aI170
aa(lp534
g204
ag3
aF704.551
aI1408
aI170
aa(lp535
g204
ag3
aF706.575
aI1412
aI170
aa(lp536
g204
ag3
aF708.61
aI1416
aI170
aa(lp537
g204
ag3
aF711.415
aI1422
aI170
aa(lp538
g204
ag3
aF714.183
aI1427
aI170
aa(lp539
g204
ag3
aF716.397
aI1432
aI170
aa(lp540
g204
ag3
aF719.071
aI1438
aI170
aa(lp541
g204
ag3
aF721.956
aI1445
aI170
aa(lp542
g204
ag3
aF723.587
aI1448
aI170
aa(lp543
g204
ag3
aF725.459
aI1452
aI170
aa(lp544
g204
ag3
aF726.409
aI1453
aI170
aa(lp545
g204
ag3
aF727.926
aI1456
aI170
aa(lp546
g204
ag3
aF730.618
aI1461
aI170
aa(lp547
g204
ag3
aF732.47
aI1465
aI170
aa(lp548
g204
ag3
aF734.839
aI1470
aI170
aa(lp549
g204
ag3
aF736.817
aI1474
aI170
aa(lp550
g204
ag3
aF738.161
aI1476
aI170
aa(lp551
g204
ag3
aF739.395
aI1478
aI170
aa(lp552
g204
ag3
aF741.685
aI1483
aI170
aa(lp553
g204
ag3
aF743.582
aI1487
aI170
aa(lp554
g204
ag3
aF744.893
aI1489
aI170
aa(lp555
g204
ag3
aF746.956
aI1493
aI170
aa(lp556
g204
ag3
aF750.702
aI1502
aI170
aa(lp557
g204
ag3
aF753.203
aI1508
aI170
aa(lp558
g204
ag3
aF755.592
aI1513
aI170
aa(lp559
g204
ag3
aF757.534
aI1517
aI170
aa(lp560
g204
ag3
aF760.512
aI1523
aI170
aa(lp561
g204
ag3
aF763.106
aI1529
aI170
aa(lp562
g204
ag3
aF764.971
aI1533
aI170
aa(lp563
g204
ag3
aF766.882
aI1537
aI170
aa(lp564
g204
ag3
aF769.811
aI1544
aI170
aa(lp565
g204
ag3
aF771.631
aI1548
aI170
aa(lp566
g204
ag3
aF774.68
aI1555
aI170
aa(lp567
g204
ag3
aF777.529
aI1562
aI170
aa(lp568
g204
ag3
aF778.743
aI1564
aI170
aa(lp569
g204
ag3
aF781.277
aI1570
aI170
aa(lp570
g204
ag3
aF783.179
aI1574
aI170
aa(lp571
g204
ag3
aF785.726
aI1580
aI170
aa(lp572
g204
ag3
aF787.206
aI1583
aI170
aa(lp573
g204
ag3
aF788.836
aI1586
aI170
aa(lp574
g204
ag3
aF792.105
aI1593
aI170
aa(lp575
g204
ag3
aF794.302
aI1598
aI170
aa(lp576
g204
ag3
aF796.503
aI1603
aI170
aa(lp577
g204
ag3
aF799.135
aI1609
aI170
aa(lp578
g204
ag3
aF801.149
aI1613
aI170
aa(lp579
g204
ag3
aF802.993
aI1617
aI170
aa(lp580
g204
ag3
aF806.023
aI1623
aI170
aa(lp581
g204
ag3
aF808.187
aI1628
aI170
aa(lp582
g204
ag3
aF810.023
aI1632
aI170
aa(lp583
g204
ag3
aF811.568
aI1635
aI170
aa(lp584
g204
ag3
aF815.229
aI1644
aI170
aa(lp585
g204
ag3
aF816.382
aI1646
aI170
aa(lp586
g204
ag3
aF817.291
aI1647
aI170
aa(lp587
g204
ag3
aF818.855
aI1650
aI170
aa(lp588
g204
ag3
aF821.342
aI1655
aI170
aa(lp589
g204
ag3
aF823.841
aI1661
aI170
aa(lp590
g204
ag3
aF826.141
aI1666
aI170
aa(lp591
g204
ag3
aF828.384
aI1671
aI170
aa(lp592
g204
ag3
aF831.32
aI1678
aI170
aa(lp593
g204
ag3
aF833.178
aI1682
aI170
aa(lp594
g204
ag3
aF835.377
aI1687
aI170
aa(lp595
g204
ag3
aF837.355
aI1690
aI170
aa(lp596
g204
ag3
aF839.206
aI1694
aI170
aa(lp597
g204
ag3
aF841.135
aI1698
aI170
aa(lp598
g204
ag3
aF844.346
aI1706
aI170
aa(lp599
g204
ag3
aF847.532
aI1714
aI170
aa(lp600
g204
ag3
aF850.465
aI1721
aI170
aa(lp601
g204
ag3
aF852.817
aI1726
aI170
aa(lp602
g204
ag3
aF854.418
aI1729
aI170
aa(lp603
g204
ag3
aF856.031
aI1732
aI170
aa(lp604
g204
ag3
aF857.654
aI1735
aI170
aa(lp605
g204
ag3
aF859.232
aI1738
aI170
aa(lp606
g204
ag3
aF861.835
aI1744
aI170
aa(lp607
g204
ag3
aF864.168
aI1749
aI170
aa(lp608
g204
ag3
aF866.333
aI1753
aI170
aa(lp609
g204
ag3
aF868.923
aI1759
aI170
aa(lp610
g204
ag3
aF871.108
aI1764
aI170
aa(lp611
g204
ag3
aF873.394
aI1769
aI170
aa(lp612
g204
ag3
aF875.011
aI1772
aI170
aa(lp613
g204
ag3
aF877.267
aI1777
aI170
aa(lp614
g204
ag3
aF879.863
aI1783
aI170
aa(lp615
g204
ag3
aF882.461
aI1788
aI170
aa(lp616
g204
ag3
aF884.412
aI1792
aI170
aa(lp617
g204
ag3
aF886.953
aI1798
aI170
aa(lp618
g204
ag3
aF889.801
aI1805
aI170
aa(lp619
g204
ag3
aF891.725
aI1809
aI170
aa(lp620
g204
ag3
aF893.77
aI1813
aI170
aa(lp621
g204
ag3
aF896.008
aI1818
aI170
aa(lp622
g204
ag3
aF898.319
aI1823
aI170
aa(lp623
g204
ag3
aF900.527
aI1828
aI170
aa(lp624
g204
ag3
aF902.4
aI1832
aI170
aa(lp625
g204
ag3
aF904.962
aI1838
aI170
aa(lp626
g204
ag3
aF907.127
aI1843
aI170
aa(lp627
g204
ag3
aF909.76
aI1849
aI170
aa(lp628
g204
ag3
aF912.99
aI1856
aI170
aa(lp629
g204
ag3
aF914.823
aI1860
aI170
aa(lp630
g204
ag3
aF916.857
aI1864
aI170
aa(lp631
g204
ag3
aF918.721
aI1868
aI170
aa(lp632
g204
ag3
aF920.892
aI1873
aI170
aa(lp633
g204
ag3
aF922.554
aI1876
aI170
aa(lp634
g204
ag3
aF924.59
aI1880
aI170
aa(lp635
g204
ag3
aF926.843
aI1885
aI170
aa(lp636
g204
ag3
aF928.964
aI1889
aI170
aa(lp637
g204
ag3
aF930.246
aI1891
aI170
aa(lp638
g204
ag3
aF930.747
aI1891
aI170
aa(lp639
g204
ag3
aF931.927
aI1893
aI170
aa(lp640
g204
ag3
aF932.767
aI1894
aI170
aa(lp641
g204
ag3
aF936.081
aI1899
aI185
aa(lp642
g204
ag3
aF938.643
aI1905
aI185
aa(lp643
g204
ag3
aF940.903
aI1910
aI185
aa(lp644
g204
ag3
aF942.898
aI1914
aI185
aa(lp645
g204
ag3
aF945.924
aI1918
aI185
aa(lp646
g204
ag3
aF947.913
aI1922
aI185
aa(lp647
g204
ag3
aF950.617
aI1928
aI185
aa(lp648
g204
ag3
aF952.922
aI1933
aI185
aa(lp649
g204
ag3
aF954.851
aI1937
aI185
aa(lp650
g204
ag3
aF957.887
aI1944
aI185
aa(lp651
g204
ag3
aF959.552
aI1947
aI185
aa(lp652
g204
ag3
aF961.164
aI1950
aI185
aa(lp653
g204
ag3
aF964.143
aI1957
aI185
aa(lp654
g204
ag3
aF966.446
aI1962
aI185
aa(lp655
g204
ag3
aF968.966
aI1968
aI185
aa(lp656
g204
ag3
aF971.192
aI1973
aI185
aa(lp657
g204
ag3
aF973.505
aI1978
aI185
aa(lp658
g204
ag3
aF974.34
aI1979
aI185
aa(lp659
g204
ag3
aF976.208
aI1983
aI185
aa(lp660
g204
ag3
aF979.074
aI1990
aI185
aa(lp661
g204
ag3
aF980.256
aI1992
aI185
aa(lp662
g204
ag3
aF982.204
aI1995
aI185
aa(lp663
g204
ag3
aF982.699
aI1995
aI185
aa(lp664
g204
ag3
aF984.318
aI1998
aI185
aa(lp665
g204
ag3
aF986.819
aI2004
aI185
aa(lp666
g204
ag3
aF988.15
aI2006
aI185
aa(lp667
g204
ag3
aF989.652
aI2009
aI185
aa(lp668
g204
ag3
aF991.49
aI2012
aI185
aa(lp669
g204
ag3
aF993.329
aI2016
aI185
aa(lp670
g204
ag3
aF996.215
aI2023
aI185
aa(lp671
g204
ag3
aF998.363
aI2027
aI185
aa(lp672
g204
ag3
aF1000.89
aI2033
aI185
aa(lp673
g204
ag3
aF1003.1
aI2038
aI185
aa(lp674
g204
ag3
aF1004.67
aI2041
aI185
aa(lp675
g204
ag3
aF1006.29
aI2044
aI185
aa(lp676
g204
ag3
aF1008.61
aI2049
aI185
aa(lp677
g204
ag3
aF1010.91
aI2054
aI185
aa(lp678
g204
ag3
aF1013.47
aI2060
aI185
aa(lp679
g204
ag3
aF1016.06
aI2066
aI185
aa(lp680
g204
ag3
aF1018.24
aI2071
aI185
aa(lp681
g204
ag3
aF1020.78
aI2077
aI185
aa(lp682
g204
ag3
aF1023.42
aI2083
aI185
aa(lp683
g204
ag3
aF1025.65
aI2088
aI185
aa(lp684
g204
ag3
aF1027.22
aI2091
aI185
aa(lp685
g204
ag3
aF1029.5
aI2096
aI185
aa(lp686
g204
ag3
aF1031.77
aI2101
aI185
aa(lp687
g204
ag3
aF1033.52
aI2104
aI185
aa(lp688
g204
ag3
aF1036.07
aI2109
aI185
aa(lp689
g204
ag3
aF1037.31
aI2111
aI185
aa(lp690
g204
ag3
aF1039.23
aI2115
aI185
aa(lp691
g204
ag3
aF1040.49
aI2117
aI185
aa(lp692
g204
ag3
aF1043.03
aI2123
aI185
aa(lp693
g204
ag3
aF1046.3
aI2131
aI185
aa(lp694
g204
ag3
aF1049.52
aI2139
aI185
aa(lp695
g204
ag3
aF1052.0
aI2144
aI185
aa(lp696
g204
ag3
aF1054.54
aI2150
aI185
aa(lp697
g204
ag3
aF1057.09
aI2156
aI185
aa(lp698
g204
ag3
aF1059.35
aI2161
aI185
aa(lp699
g204
ag3
aF1061.19
aI2165
aI185
aa(lp700
g204
ag3
aF1063.14
aI2169
aI185
aa(lp701
g204
ag3
aF1064.68
aI2172
aI185
aa(lp702
g204
ag3
aF1066.77
aI2176
aI185
aa(lp703
g204
ag3
aF1068.35
aI2179
aI185
aa(lp704
g204
ag3
aF1070.27
aI2183
aI185
aa(lp705
g204
ag3
aF1073.59
aI2191
aI185
aa(lp706
g204
ag3
aF1074.74
aI2193
aI185
aa(lp707
g204
ag3
aF1077.28
aI2199
aI185
aa(lp708
g204
ag3
aF1079.23
aI2203
aI185
aa(lp709
g204
ag3
aF1080.74
aI2206
aI185
aa(lp710
g204
ag3
aF1082.72
aI2210
aI185
aa(lp711
g204
ag3
aF1084.97
aI2215
aI185
aa(lp712
g204
ag3
aF1087.2
aI2220
aI185
aa(lp713
g204
ag3
aF1089.72
aI2226
aI185
aa(lp714
g204
ag3
aF1092.3
aI2232
aI185
aa(lp715
g204
ag3
aF1093.6
aI2234
aI185
aa(lp716
g204
ag3
aF1095.42
aI2238
aI185
aa(lp717
g204
ag3
aF1097.83
aI2243
aI185
aa(lp718
g204
ag3
aF1100.0
aI2248
aI185
aa(lp719
g204
ag3
aF1102.2
aI2253
aI185
aa(lp720
g204
ag3
aF1104.76
aI2259
aI185
aa(lp721
g204
ag3
aF1107.26
aI2265
aI185
aa(lp722
g204
ag3
aF1110.2
aI2272
aI185
aa(lp723
g204
ag3
aF1111.71
aI2275
aI185
aa(lp724
g204
ag3
aF1113.86
aI2279
aI185
aa(lp725
g204
ag3
aF1115.13
aI2281
aI185
aa(lp726
g204
ag3
aF1117.41
aI2286
aI185
aa(lp727
g204
ag3
aF1119.29
aI2290
aI185
aa(lp728
g204
ag3
aF1121.17
aI2294
aI185
aa(lp729
g204
ag3
aF1123.01
aI2298
aI185
aa(lp730
g204
ag3
aF1124.2
aI2300
aI185
aa(lp731
g204
ag3
aF1126.41
aI2305
aI185
aa(lp732
g204
ag3
aF1129.43
aI2309
aI185
aa(lp733
g204
ag3
aF1131.04
aI2312
aI185
aa(lp734
g204
ag3
aF1133.26
aI2317
aI185
aa(lp735
g204
ag3
aF1134.83
aI2320
aI185
aa(lp736
g204
ag3
aF1137.39
aI2326
aI185
aa(lp737
g204
ag3
aF1138.7
aI2328
aI185
aa(lp738
g204
ag3
aF1140.28
aI2331
aI185
aa(lp739
g204
ag3
aF1142.84
aI2337
aI185
aa(lp740
g204
ag3
aF1144.22
aI2339
aI185
aa(lp741
g204
ag3
aF1146.22
aI2343
aI185
aa(lp742
g204
ag3
aF1148.39
aI2347
aI185
aa(lp743
g204
ag3
aF1150.02
aI2350
aI185
aa(lp744
g204
ag3
aF1152.3
aI2355
aI185
aa(lp745
g204
ag3
aF1153.98
aI2358
aI185
aa(lp746
g204
ag3
aF1155.63
aI2361
aI185
aa(lp747
g204
ag3
aF1157.8
aI2366
aI185
aa(lp748
g204
ag3
aF1159.81
aI2370
aI185
aa(lp749
g204
ag3
aF1161.71
aI2374
aI185
aa(lp750
g204
ag3
aF1164.64
aI2381
aI185
aa(lp751
g204
ag3
aF1165.86
aI2383
aI185
aa(lp752
g204
ag3
aF1168.12
aI2388
aI185
aa(lp753
g204
ag3
aF1169.86
aI2391
aI185
aa(lp754
g204
ag3
aF1171.4
aI2394
aI185
aa(lp755
g204
ag3
aF1173.4
aI2398
aI185
aa(lp756
g204
ag3
aF1175.1
aI2401
aI185
aa(lp757
g204
ag3
aF1176.69
aI2404
aI185
aa(lp758
g204
ag3
aF1179.1
aI2409
aI185
aa(lp759
g204
ag3
aF1181.34
aI2414
aI185
aa(lp760
g204
ag3
aF1183.21
aI2418
aI185
aa(lp761
g204
ag3
aF1184.6
aI2420
aI185
aa(lp762
g204
ag3
aF1186.15
aI2423
aI185
aa(lp763
g204
ag3
aF1187.35
aI2425
aI185
aa(lp764
g204
ag3
aF1187.84
aI2425
aI185
aa(lp765
g204
ag3
aF1189.01
aI2427
aI185
aa(lp766
g204
ag3
aF1190.17
aI2428
aI185
aa(lp767
g204
ag3
aF1192.36
aI2433
aI185
aa(lp768
g204
ag3
aF1193.2
aI2434
aI185
aa(lp769
g204
ag3
aF1194.43
aI2436
aI185
aa(lp770
g204
ag3
aF1195.6
aI2438
aI185
aa(lp771
g204
ag3
aF1196.1
aI2438
aI185
aa(lp772
g204
ag3
aF1196.94
aI2439
aI185
aa(lp773
g204
ag3
aF1198.47
aI2442
aI185
aa(lp774
g204
ag3
aF1199.3
aI2443
aI185
aa(lp775
g204
ag3
aF1199.8
aI2443
aI185
aa(lp776
g204
ag3
aF1201.64
aI2447
aI185
aa(lp777
g204
ag3
aF1203.32
aI2450
aI185
aa(lp778
g204
ag3
aF1204.15
aI2451
aI185
aa(lp779
g204
ag3
aF1204.74
aI2451
aI185
aa(lp780
g204
ag3
aF1205.8
aI2452
aI185
aa(lp781
g204
ag3
aF1206.64
aI2453
aI185
aa(lp782
g204
ag3
aF1207.57
aI2454
aI185
aa(lp783
g204
ag3
aF1208.4
aI2455
aI185
aa(lp784
g204
ag3
aF1208.93
aI2455
aI185
aa(lp785
g204
ag3
aF1209.42
aI2455
aI185
aa(lp786
g204
ag3
aF1210.28
aI2456
aI185
aa(lp787
g204
ag3
aF1211.44
aI2458
aI185
aa(lp788
g204
ag3
aF1212.28
aI2459
aI185
aa(lp789
g204
ag3
aF1213.45
aI2461
aI185
aa(lp790
g204
ag3
aF1214.28
aI2462
aI185
aa(lp791
g204
ag3
aF1215.2
aI2463
aI185
aa(lp792
g204
ag3
aF1215.69
aI2463
aI185
aa(lp793
g204
ag3
aF1216.53
aI2464
aI185
aa(lp794
g204
ag3
aF1217.37
aI2465
aI185
aa(lp795
g204
ag3
aF1218.57
aI2467
aI185
aa(lp796
g204
ag3
aF1219.49
aI2468
aI185
aa(lp797
g204
ag3
aF1220.67
aI2470
aI185
aa(lp798
g204
ag3
aF1221.5
aI2471
aI185
aa(lp799
g204
ag3
aF1223.18
aI2474
aI185
aa(lp800
g204
ag3
aF1224.84
aI2477
aI185
aa(lp801
g204
ag3
aF1226.1
aI2479
aI185
aa(lp802
g204
ag3
aF1227.31
aI2481
aI185
aa(lp803
g204
ag3
aF1228.12
aI2482
aI185
aa(lp804
g204
ag3
aF1228.6
aI2482
aI185
aa(lp805
g204
ag3
aF1231.31
aI2487
aI201
aa(lp806
g204
ag3
aF1231.81
aI2487
aI201
aa(lp807
g204
ag3
aF1232.31
aI2487
aI201
aa(lp808
g204
ag3
aF1232.83
aI2487
aI201
aa(lp809
g204
ag3
aF1233.34
aI2487
aI201
aa(lp810
g204
ag3
aF1233.84
aI2487
aI201
aa(lp811
g204
ag3
aF1234.35
aI2487
aI201
aa(lp812
g204
ag3
aF1234.86
aI2487
aI201
aa(lp813
g204
ag3
aF1235.37
aI2487
aI201
aa(lp814
g204
ag3
aF1235.87
aI2487
aI201
aa(lp815
g204
ag3
aF1236.38
aI2487
aI201
aa(lp816
g204
ag3
aF1236.89
aI2487
aI201
aa(lp817
g204
ag3
aF1237.4
aI2487
aI201
aa(lp818
g204
ag3
aF1237.91
aI2487
aI201
aa(lp819
g204
ag3
aF1238.41
aI2487
aI201
aa(lp820
g204
ag3
aF1238.93
aI2487
aI201
aa(lp821
g204
ag3
aF1239.44
aI2487
aI201
aa(lp822
g204
ag3
aF1239.96
aI2487
aI201
aa(lp823
g204
ag3
aF1240.47
aI2487
aI201
aa(lp824
g204
ag3
aF1240.98
aI2487
aI201
aa(lp825
g204
ag3
aF1241.49
aI2487
aI201
aa(lp826
g204
ag3
aF1242.0
aI2487
aI201
aa(lp827
g204
ag3
aF1242.5
aI2487
aI201
aa(lp828
g204
ag3
aF1242.99
aI2487
aI201
aa(lp829
g204
ag3
aF1243.5
aI2487
aI201
aa(lp830
g204
ag3
aF1244.02
aI2487
aI201
aa(lp831
g204
ag3
aF1244.52
aI2487
aI201
aa(lp832
g204
ag3
aF1245.02
aI2487
aI201
aa(lp833
g204
ag3
aF1245.54
aI2487
aI201
aa(lp834
g204
ag3
aF1246.04
aI2487
aI201
aa(lp835
g204
ag3
aF1246.54
aI2487
aI201
aa(lp836
g204
ag3
aF1247.05
aI2487
aI201
aa(lp837
g204
ag3
aF1247.55
aI2487
aI201
aa(lp838
g204
ag3
aF1248.06
aI2487
aI201
aa(lp839
g204
ag3
aF1248.58
aI2487
aI201
aa(lp840
g204
ag3
aF1249.09
aI2487
aI201
aa(lp841
g204
ag3
aF1249.58
aI2487
aI201
aa(lp842
g204
ag3
aF1250.1
aI2487
aI201
aa(lp843
g204
ag3
aF1250.6
aI2487
aI201
aa(lp844
g204
ag3
aF1251.11
aI2487
aI201
aa(lp845
g204
ag3
aF1251.61
aI2487
aI201
aa(lp846
g204
ag3
aF1252.11
aI2487
aI201
aa(lp847
g204
ag3
aF1252.63
aI2487
aI201
aa(lp848
g204
ag3
aF1253.14
aI2487
aI201
aa(lp849
g204
ag3
aF1253.84
aI2487
aI201
aa(lp850
g204
ag3
aF1254.35
aI2487
aI201
aa(lp851
g204
ag3
aF1254.85
aI2487
aI201
aa(lp852
g204
ag3
aF1255.37
aI2487
aI201
aa(lp853
g204
ag3
aF1256.58
aI2489
aI201
aa(lp854
g204
ag3
aF1259.57
aI2496
aI201
aa(lp855
g204
ag3
aF1263.16
aI2505
aI201
aa(lp856
g204
ag3
aF1265.5
aI2510
aI201
aa(lp857
g204
ag3
aF1267.34
aI2514
aI201
aa(lp858
g204
ag3
aF1268.56
aI2516
aI201
aa(lp859
g204
ag3
aF1270.69
aI2520
aI201
aa(lp860
g204
ag3
aF1272.54
aI2524
aI201
aa(lp861
g204
ag3
aF1274.52
aI2528
aI201
aa(lp862
g204
ag3
aF1276.02
aI2531
aI201
aa(lp863
g204
ag3
aF1279.55
aI2540
aI201
aa(lp864
g204
ag3
aF1282.19
aI2546
aI201
aa(lp865
g204
ag3
aF1284.52
aI2551
aI201
aa(lp866
g204
ag3
aF1287.09
aI2557
aI201
aa(lp867
g204
ag3
aF1288.74
aI2560
aI201
aa(lp868
g204
ag3
aF1290.37
aI2563
aI201
aa(lp869
g204
ag3
aF1292.66
aI2568
aI201
aa(lp870
g204
ag3
aF1294.97
aI2573
aI201
aa(lp871
g204
ag3
aF1296.51
aI2576
aI201
aa(lp872
g204
ag3
aF1298.01
aI2579
aI201
aa(lp873
g204
ag3
aF1300.56
aI2585
aI201
aa(lp874
g204
ag3
aF1302.41
aI2589
aI201
aa(lp875
g204
ag3
aF1304.61
aI2594
aI201
aa(lp876
g204
ag3
aF1306.87
aI2599
aI201
aa(lp877
g204
ag3
aF1308.81
aI2603
aI201
aa(lp878
g204
ag3
aF1310.36
aI2606
aI201
aa(lp879
g204
ag3
aF1311.6
aI2608
aI201
aa(lp880
g204
ag3
aF1313.47
aI2612
aI201
aa(lp881
g204
ag3
aF1314.77
aI2614
aI201
aa(lp882
g204
ag3
aF1316.34
aI2617
aI201
aa(lp883
g204
ag3
aF1317.91
aI2620
aI201
aa(lp884
g204
ag3
aF1320.25
aI2625
aI201
aa(lp885
g204
ag3
aF1321.58
aI2627
aI201
aa(lp886
g204
ag3
aF1323.43
aI2631
aI201
aa(lp887
g204
ag3
aF1325.39
aI2635
aI201
aa(lp888
g204
ag3
aF1327.62
aI2640
aI201
aa(lp889
g204
ag3
aF1330.53
aI2647
aI201
aa(lp890
g204
ag3
aF1333.37
aI2654
aI201
aa(lp891
g204
ag3
aF1334.89
aI2657
aI201
aa(lp892
g204
ag3
aF1336.09
aI2659
aI201
aa(lp893
g204
ag3
aF1337.95
aI2663
aI201
aa(lp894
g204
ag3
aF1340.15
aI2668
aI201
aa(lp895
g204
ag3
aF1342.0
aI2672
aI201
aa(lp896
g204
ag3
aF1344.37
aI2677
aI201
aa(lp897
g204
ag3
aF1346.77
aI2682
aI201
aa(lp898
g204
ag3
aF1348.27
aI2685
aI201
aa(lp899
g204
ag3
aF1350.24
aI2689
aI201
aa(lp900
g204
ag3
aF1351.15
aI2690
aI201
aa(lp901
g204
ag3
aF1352.64
aI2693
aI201
aa(lp902
g204
ag3
aF1355.7
aI2700
aI201
aa(lp903
g204
ag3
aF1358.41
aI2706
aI201
aa(lp904
g204
ag3
aF1359.89
aI2709
aI201
aa(lp905
g204
ag3
aF1362.23
aI2714
aI201
aa(lp906
g204
ag3
aF1364.4
aI2719
aI201
aa(lp907
g204
ag3
aF1366.64
aI2724
aI201
aa(lp908
g204
ag3
aF1368.21
aI2727
aI201
aa(lp909
g204
ag3
aF1370.44
aI2732
aI201
aa(lp910
g204
ag3
aF1372.07
aI2735
aI201
aa(lp911
g204
ag3
aF1373.94
aI2739
aI201
aa(lp912
g204
ag3
aF1376.15
aI2744
aI201
aa(lp913
g204
ag3
aF1377.76
aI2747
aI201
aa(lp914
g204
ag3
aF1378.92
aI2749
aI201
aa(lp915
g204
ag3
aF1381.54
aI2755
aI201
aa(lp916
g204
ag3
aF1383.73
aI2760
aI201
aa(lp917
g204
ag3
aF1385.96
aI2765
aI201
aa(lp918
g204
ag3
aF1388.82
aI2772
aI201
aa(lp919
g204
ag3
aF1391.79
aI2779
aI201
aa(lp920
g204
ag3
aF1394.3
aI2785
aI201
aa(lp921
g204
ag3
aF1396.94
aI2791
aI201
aa(lp922
g204
ag3
aF1399.51
aI2797
aI201
aa(lp923
g204
ag3
aF1401.45
aI2801
aI201
aa(lp924
g204
ag3
aF1403.35
aI2805
aI201
aa(lp925
g204
ag3
aF1405.58
aI2810
aI201
aa(lp926
g204
ag3
aF1407.55
aI2814
aI201
aa(lp927
g204
ag3
aF1409.39
aI2818
aI201
aa(lp928
g204
ag3
aF1412.34
aI2825
aI201
aa(lp929
g204
ag3
aF1415.31
aI2832
aI201
aa(lp930
g204
ag3
aF1416.55
aI2834
aI201
aa(lp931
g204
ag3
aF1418.49
aI2838
aI201
aa(lp932
g204
ag3
aF1421.33
aI2845
aI201
aa(lp933
g204
ag3
aF1422.87
aI2848
aI201
aa(lp934
g204
ag3
aF1424.46
aI2851
aI201
aa(lp935
g204
ag3
aF1426.39
aI2855
aI201
aa(lp936
g204
ag3
aF1427.97
aI2858
aI201
aa(lp937
g204
ag3
aF1430.17
aI2863
aI201
aa(lp938
g204
ag3
aF1432.47
aI2868
aI201
aa(lp939
g204
ag3
aF1434.68
aI2873
aI201
aa(lp940
g204
ag3
aF1435.86
aI2875
aI201
aa(lp941
g204
ag3
aF1436.79
aI2876
aI201
aa(lp942
g204
ag3
aF1438.69
aI2880
aI201
aa(lp943
g204
ag3
aF1441.28
aI2886
aI201
aa(lp944
g204
ag3
aF1443.87
aI2892
aI201
aa(lp945
g204
ag3
aF1446.15
aI2897
aI201
aa(lp946
g204
ag3
aF1448.06
aI2901
aI201
aa(lp947
g204
ag3
aF1449.7
aI2904
aI201
aa(lp948
g204
ag3
aF1450.92
aI2906
aI201
aa(lp949
g204
ag3
aF1453.5
aI2911
aI201
aa(lp950
g204
ag3
aF1456.58
aI2918
aI201
aa(lp951
g204
ag3
aF1458.27
aI2921
aI201
aa(lp952
g204
ag3
aF1459.51
aI2923
aI201
aa(lp953
g204
ag3
aF1461.68
aI2927
aI201
aa(lp954
g204
ag3
aF1464.2
aI2933
aI201
aa(lp955
g204
ag3
aF1465.36
aI2935
aI201
aa(lp956
g204
ag3
aF1467.78
aI2940
aI201
aa(lp957
g204
ag3
aF1470.05
aI2945
aI201
aa(lp958
g204
ag3
aF1472.52
aI2950
aI201
aa(lp959
g204
ag3
aF1474.86
aI2955
aI201
aa(lp960
g204
ag3
aF1476.2
aI2957
aI201
aa(lp961
g204
ag3
aF1478.24
aI2961
aI201
aa(lp962
g204
ag3
aF1480.52
aI2966
aI201
aa(lp963
g204
ag3
aF1482.18
aI2969
aI201
aa(lp964
g204
ag3
aF1484.25
aI2973
aI201
aa(lp965
g204
ag3
aF1485.9
aI2976
aI201
aa(lp966
g204
ag3
aF1487.5
aI2979
aI201
aa(lp967
g204
ag3
aF1489.79
aI2984
aI201
aa(lp968
g204
ag3
aF1492.42
aI2990
aI201
aa(lp969
g204
ag3
aF1494.28
aI2994
aI201
aa(lp970
g204
ag3
aF1495.94
aI2997
aI201
aa(lp971
g204
ag3
aF1497.2
aI2999
aI201
aa(lp972
g204
ag3
aF1499.13
aI3003
aI201
aa(lp973
g204
ag3
aF1500.32
aI3005
aI201
aa(lp974
g204
ag3
aF1501.88
aI3008
aI201
aa(lp975
g204
ag3
aF1503.73
aI3012
aI201
aa(lp976
g204
ag3
aF1506.26
aI3018
aI201
aa(lp977
g204
ag3
aF1508.12
aI3022
aI201
aa(lp978
g204
ag3
aF1509.28
aI3024
aI201
aa(lp979
g204
ag3
aF1511.81
aI3030
aI201
aa(lp980
g204
ag3
aF1513.67
aI3034
aI201
aa(lp981
g204
ag3
aF1515.61
aI3038
aI201
aa(lp982
g204
ag3
aF1516.93
aI3040
aI201
aa(lp983
g204
ag3
aF1518.14
aI3042
aI201
aa(lp984
g204
ag3
aF1519.04
aI3043
aI201
aa(lp985
g204
ag3
aF1520.93
aI3047
aI201
aa(lp986
g204
ag3
aF1522.18
aI3049
aI201
aa(lp987
g204
ag3
aF1523.36
aI3051
aI201
aa(lp988
g204
ag3
aF1524.23
aI3052
aI201
aa(lp989
g204
ag3
aF1525.49
aI3054
aI201
aa(lp990
g204
ag3
aF1526.32
aI3055
aI201
aa(lp991
g204
ag3
aF1527.2
aI3056
aI201
aa(lp992
g204
ag3
aF1528.38
aI3058
aI201
aa(lp993
g204
ag3
aF1529.96
aI3061
aI201
aa(lp994
g204
ag3
aF1531.27
aI3063
aI201
aa(lp995
g204
ag3
aF1532.78
aI3066
aI201
aa(lp996
g204
ag3
aF1533.7
aI3067
aI201
aa(lp997
g204
ag3
aF1534.3
aI3067
aI201
aa(lp998
g204
ag3
aF1534.8
aI3067
aI201
aa(lp999
g204
ag3
aF1535.35
aI3067
aI201
aa(lp1000
g204
ag3
aF1535.85
aI3067
aI201
aa(lp1001
g204
ag3
aF1536.36
aI3067
aI201
aa(lp1002
g204
ag3
aF1536.94
aI3067
aI201
aa(lp1003
g204
ag3
aF1538.13
aI3069
aI201
aa(lp1004
g204
ag3
aF1538.97
aI3070
aI201
aa(lp1005
g204
ag3
aF1539.45
aI3070
aI201
aa(lp1006
g204
ag3
aF1540.63
aI3072
aI201
aa(lp1007
g204
ag3
aF1541.5
aI3073
aI201
aa(lp1008
g204
ag3
aF1541.99
aI3073
aI201
aa(lp1009
g204
ag3
aF1542.5
aI3073
aI201
aa(lp1010
g204
ag3
aF1543.0
aI3073
aI201
aa(lp1011
g204
ag3
aF1543.84
aI3074
aI201
aa(lp1012
g204
ag3
aF1545.02
aI3076
aI201
aa(lp1013
g204
ag3
aF1548.44
aI3081
aI209
aa(lp1014
g204
ag3
aF1551.62
aI3089
aI209
aa(lp1015
g204
ag3
aF1553.8
aI3093
aI209
aa(lp1016
g204
ag3
aF1556.02
aI3098
aI209
aa(lp1017
g204
ag3
aF1558.68
aI3104
aI209
aa(lp1018
g204
ag3
aF1561.26
aI3110
aI209
aa(lp1019
g204
ag3
aF1563.53
aI3115
aI209
aa(lp1020
g204
ag3
aF1565.8
aI3120
aI209
aa(lp1021
g204
ag3
aF1568.79
aI3127
aI209
aa(lp1022
g204
ag3
aF1572.04
aI3135
aI209
aa(lp1023
g204
ag3
aF1574.35
aI3140
aI209
aa(lp1024
g204
ag3
aF1575.93
aI3143
aI209
aa(lp1025
g204
ag3
aF1578.17
aI3148
aI209
aa(lp1026
g204
ag3
aF1580.75
aI3154
aI209
aa(lp1027
g204
ag3
aF1583.41
aI3160
aI209
aa(lp1028
g204
ag3
aF1585.3
aI3164
aI209
aa(lp1029
g204
ag3
aF1586.52
aI3166
aI209
aa(lp1030
g204
ag3
aF1589.04
aI3172
aI209
aa(lp1031
g204
ag3
aF1591.26
aI3177
aI209
aa(lp1032
g204
ag3
aF1593.54
aI3182
aI209
aa(lp1033
g204
ag3
aF1595.77
aI3187
aI209
aa(lp1034
g204
ag3
aF1597.62
aI3191
aI209
aa(lp1035
g204
ag3
aF1598.52
aI3192
aI209
aa(lp1036
g204
ag3
aF1599.76
aI3194
aI209
aa(lp1037
g204
ag3
aF1601.61
aI3198
aI209
aa(lp1038
g204
ag3
aF1604.0
aI3203
aI209
aa(lp1039
g204
ag3
aF1605.16
aI3205
aI209
aa(lp1040
g204
ag3
aF1608.2
aI3212
aI209
aa(lp1041
g204
ag3
aF1609.76
aI3215
aI209
aa(lp1042
g204
ag3
aF1612.27
aI3221
aI209
aa(lp1043
g204
ag3
aF1614.44
aI3226
aI209
aa(lp1044
g204
ag3
aF1617.41
aI3233
aI209
aa(lp1045
g204
ag3
aF1620.0
aI3239
aI209
aa(lp1046
g204
ag3
aF1623.0
aI3246
aI209
aa(lp1047
g204
ag3
aF1625.05
aI3250
aI209
aa(lp1048
g204
ag3
aF1627.99
aI3257
aI209
aa(lp1049
g204
ag3
aF1629.93
aI3261
aI209
aa(lp1050
g204
ag3
aF1632.23
aI3266
aI209
aa(lp1051
g204
ag3
aF1634.22
aI3270
aI209
aa(lp1052
g204
ag3
aF1636.48
aI3275
aI209
aa(lp1053
g204
ag3
aF1639.28
aI3281
aI209
aa(lp1054
g204
ag3
aF1641.21
aI3285
aI209
aa(lp1055
g204
ag3
aF1644.11
aI3292
aI209
aa(lp1056
g204
ag3
aF1645.42
aI3294
aI209
aa(lp1057
g204
ag3
aF1648.72
aI3302
aI209
aa(lp1058
g204
ag3
aF1651.29
aI3308
aI209
aa(lp1059
g204
ag3
aF1653.28
aI3312
aI209
aa(lp1060
g204
ag3
aF1654.86
aI3315
aI209
aa(lp1061
g204
ag3
aF1657.63
aI3321
aI209
aa(lp1062
g204
ag3
aF1660.62
aI3328
aI209
aa(lp1063
g204
ag3
aF1662.63
aI3332
aI209
aa(lp1064
g204
ag3
aF1665.26
aI3338
aI209
aa(lp1065
g204
ag3
aF1667.82
aI3344
aI209
aa(lp1066
g204
ag3
aF1670.47
aI3350
aI209
aa(lp1067
g204
ag3
aF1671.65
aI3352
aI209
aa(lp1068
g204
ag3
aF1674.17
aI3358
aI209
aa(lp1069
g204
ag3
aF1676.23
aI3362
aI209
aa(lp1070
g204
ag3
aF1679.14
aI3369
aI209
aa(lp1071
g204
ag3
aF1682.07
aI3376
aI209
aa(lp1072
g204
ag3
aF1684.33
aI3381
aI209
aa(lp1073
g204
ag3
aF1686.58
aI3386
aI209
aa(lp1074
g204
ag3
aF1688.94
aI3391
aI209
aa(lp1075
g204
ag3
aF1691.51
aI3397
aI209
aa(lp1076
g204
ag3
aF1693.73
aI3402
aI209
aa(lp1077
g204
ag3
aF1696.28
aI3408
aI209
aa(lp1078
g204
ag3
aF1697.78
aI3411
aI209
aa(lp1079
g204
ag3
aF1700.7
aI3418
aI209
aa(lp1080
g204
ag3
aF1702.95
aI3423
aI209
aa(lp1081
g204
ag3
aF1704.91
aI3427
aI209
aa(lp1082
g204
ag3
aF1707.43
aI3433
aI209
aa(lp1083
g204
ag3
aF1710.28
aI3440
aI209
aa(lp1084
g204
ag3
aF1712.83
aI3446
aI209
aa(lp1085
g204
ag3
aF1715.77
aI3453
aI209
aa(lp1086
g204
ag3
aF1718.71
aI3460
aI209
aa(lp1087
g204
ag3
aF1721.59
aI3467
aI209
aa(lp1088
g204
ag3
aF1723.85
aI3472
aI209
aa(lp1089
g204
ag3
aF1726.68
aI3478
aI209
aa(lp1090
g204
ag3
aF1729.59
aI3485
aI209
aa(lp1091
g204
ag3
aF1731.55
aI3489
aI209
aa(lp1092
g204
ag3
aF1733.81
aI3494
aI209
aa(lp1093
g204
ag3
aF1736.64
aI3500
aI209
aa(lp1094
g204
ag3
aF1739.58
aI3507
aI209
aa(lp1095
g204
ag3
aF1742.93
aI3515
aI209
aa(lp1096
g204
ag3
aF1745.1
aI3520
aI209
aa(lp1097
g204
ag3
aF1748.37
aI3528
aI209
aa(lp1098
g204
ag3
aF1751.22
aI3535
aI209
aa(lp1099
g204
ag3
aF1753.47
aI3540
aI209
aa(lp1100
g204
ag3
aF1756.82
aI3548
aI209
aa(lp1101
g204
ag3
aF1759.05
aI3553
aI209
aa(lp1102
g204
ag3
aF1761.98
aI3560
aI209
aa(lp1103
g204
ag3
aF1763.94
aI3564
aI209
aa(lp1104
g204
ag3
aF1766.2
aI3569
aI209
aa(lp1105
g204
ag3
aF1769.8
aI3578
aI209
aa(lp1106
g204
ag3
aF1772.39
aI3584
aI209
aa(lp1107
g204
ag3
aF1775.58
aI3592
aI209
aa(lp1108
g204
ag3
aF1778.14
aI3598
aI209
aa(lp1109
g204
ag3
aF1780.71
aI3604
aI209
aa(lp1110
g204
ag3
aF1783.56
aI3611
aI209
aa(lp1111
g204
ag3
aF1785.54
aI3615
aI209
aa(lp1112
g204
ag3
aF1787.54
aI3619
aI209
aa(lp1113
g204
ag3
aF1790.22
aI3625
aI209
aa(lp1114
g204
ag3
aF1792.83
aI3631
aI209
aa(lp1115
g204
ag3
aF1795.51
aI3637
aI209
aa(lp1116
g204
ag3
aF1798.6
aI3644
aI209
aa(lp1117
g204
ag3
aF1801.88
aI3652
aI209
aa(lp1118
g204
ag3
aF1804.4
aI3658
aI209
aa(lp1119
g204
ag3
aF1807.66
aI3665
aI209
aa(lp1120
g204
ag3
aF1809.29
aI3668
aI209
aa(lp1121
g204
ag3
aF1811.7
aI3673
aI209
aa(lp1122
g204
ag3
aF1813.98
aI3678
aI209
aa(lp1123
g204
ag3
aF1816.01
aI3682
aI209
aa(lp1124
g204
ag3
aF1818.56
aI3688
aI209
aa(lp1125
g204
ag3
aF1821.54
aI3695
aI209
aa(lp1126
g204
ag3
aF1824.48
aI3702
aI209
aa(lp1127
g204
ag3
aF1826.39
aI3706
aI209
aa(lp1128
g204
ag3
aF1829.03
aI3712
aI209
aa(lp1129
g204
ag3
aF1831.32
aI3717
aI209
aa(lp1130
g204
ag3
aF1834.65
aI3725
aI209
aa(lp1131
g204
ag3
aF1837.25
aI3731
aI209
aa(lp1132
g204
ag3
aF1840.24
aI3738
aI209
aa(lp1133
g204
ag3
aF1842.55
aI3743
aI209
aa(lp1134
g204
ag3
aF1845.74
aI3751
aI209
aa(lp1135
g204
ag3
aF1847.44
aI3754
aI209
aa(lp1136
g204
ag3
aF1851.14
aI3763
aI209
aa(lp1137
g204
ag3
aF1853.15
aI3767
aI209
aa(lp1138
g204
ag3
aF1856.16
aI3774
aI209
aa(lp1139
g204
ag3
aF1858.76
aI3780
aI209
aa(lp1140
g204
ag3
aF1861.44
aI3786
aI209
aa(lp1141
g204
ag3
aF1863.88
aI3791
aI209
aa(lp1142
g204
ag3
aF1866.36
aI3796
aI209
aa(lp1143
g204
ag3
aF1869.04
aI3802
aI209
aa(lp1144
g204
ag3
aF1871.59
aI3808
aI209
aa(lp1145
g204
ag3
aF1873.78
aI3813
aI209
aa(lp1146
g204
ag3
aF1876.47
aI3819
aI209
aa(lp1147
g204
ag3
aF1879.45
aI3826
aI209
aa(lp1148
g204
ag3
aF1882.73
aI3834
aI209
aa(lp1149
g204
ag3
aF1885.26
aI3840
aI209
aa(lp1150
g204
ag3
aF1887.48
aI3845
aI209
aa(lp1151
g204
ag3
aF1889.5
aI3849
aI209
aa(lp1152
g204
ag3
aF1892.1
aI3855
aI209
aa(lp1153
g204
ag3
aF1894.04
aI3859
aI209
aa(lp1154
g204
ag3
aF1895.96
aI3863
aI209
aa(lp1155
g204
ag3
aF1898.54
aI3869
aI209
aa(lp1156
g204
ag3
aF1901.09
aI3875
aI209
aa(lp1157
g204
ag3
aF1903.14
aI3879
aI209
aa(lp1158
g204
ag3
aF1905.4
aI3884
aI209
aa(lp1159
g204
ag3
aF1908.0
aI3890
aI209
aa(lp1160
g204
ag3
aF1910.55
aI3896
aI209
aa(lp1161
g204
ag3
aF1912.43
aI3900
aI209
aa(lp1162
g204
ag3
aF1914.98
aI3906
aI209
aa(lp1163
g204
ag3
aF1917.19
aI3911
aI209
aa(lp1164
g204
ag3
aF1918.84
aI3914
aI209
aa(lp1165
g204
ag3
aF1920.0
aI3916
aI209
aa(lp1166
g204
ag3
aF1923.02
aI3923
aI209
aa(lp1167
g204
ag3
aF1926.24
aI3931
aI209
aa(lp1168
g204
ag3
aF1927.89
aI3934
aI209
aa(lp1169
g204
ag3
aF1930.88
aI3941
aI209
aa(lp1170
g204
ag3
aF1933.48
aI3947
aI209
aa(lp1171
g204
ag3
aF1935.1
aI3950
aI209
aa(lp1172
g204
ag3
aF1937.08
aI3954
aI209
aa(lp1173
g204
ag3
aF1939.02
aI3958
aI209
aa(lp1174
g204
ag3
aF1940.58
aI3961
aI209
aa(lp1175
g204
ag3
aF1943.49
aI3968
aI209
aa(lp1176
g204
ag3
aF1947.08
aI3977
aI209
aa(lp1177
g204
ag3
aF1949.98
aI3984
aI209
aa(lp1178
g204
ag3
aF1952.87
aI3991
aI209
aa(lp1179
g204
ag3
aF1955.39
aI3997
aI209
aa(lp1180
g204
ag3
aF1957.71
aI4002
aI209
aa(lp1181
g204
ag3
aF1960.25
aI4008
aI209
aa(lp1182
g204
ag3
aF1962.56
aI4013
aI209
aa(lp1183
g204
ag3
aF1964.77
aI4018
aI209
aa(lp1184
g204
ag3
aF1966.37
aI4021
aI209
aa(lp1185
g204
ag3
aF1968.88
aI4027
aI209
aa(lp1186
g204
ag3
aF1971.19
aI4032
aI209
aa(lp1187
g204
ag3
aF1973.75
aI4038
aI209
aa(lp1188
g204
ag3
aF1976.6
aI4045
aI209
aa(lp1189
g204
ag3
aF1979.16
aI4051
aI209
aa(lp1190
g204
ag3
aF1982.68
aI4056
aI209
aa(lp1191
g204
ag3
aF1985.02
aI4061
aI209
aa(lp1192
g204
ag3
aF1986.31
aI4063
aI209
aa(lp1193
g204
ag3
aF1989.27
aI4070
aI209
aa(lp1194
g204
ag3
aF1992.13
aI4077
aI209
aa(lp1195
g204
ag3
aF1993.99
aI4081
aI209
aa(lp1196
g204
ag3
aF1996.94
aI4088
aI209
aa(lp1197
g204
ag3
aF1998.82
aI4092
aI209
aa(lp1198
g204
ag3
aF2002.03
aI4100
aI209
aa(lp1199
g204
ag3
aF2004.55
aI4106
aI209
aa(lp1200
g204
ag3
aF2007.21
aI4112
aI209
aa(lp1201
g204
ag3
aF2010.66
aI4120
aI209
aa(lp1202
g204
ag3
aF2012.85
aI4125
aI209
aa(lp1203
g204
ag3
aF2015.1
aI4130
aI209
aa(lp1204
g204
ag3
aF2016.27
aI4132
aI209
aa(lp1205
g204
ag3
aF2018.21
aI4136
aI209
aa(lp1206
g204
ag3
aF2020.1
aI4140
aI209
aa(lp1207
g204
ag3
aF2023.05
aI4147
aI209
aa(lp1208
g204
ag3
aF2025.36
aI4152
aI209
aa(lp1209
g204
ag3
aF2028.22
aI4158
aI209
aa(lp1210
g204
ag3
aF2031.17
aI4165
aI209
aa(lp1211
g204
ag3
aF2034.14
aI4172
aI209
aa(lp1212
g204
ag3
aF2037.05
aI4179
aI209
aa(lp1213
g204
ag3
aF2039.73
aI4185
aI209
aa(lp1214
g204
ag3
aF2042.26
aI4191
aI209
aa(lp1215
g204
ag3
aF2044.17
aI4195
aI209
aa(lp1216
g204
ag3
aF2046.69
aI4201
aI209
aa(lp1217
g204
ag3
aF2049.91
aI4209
aI209
aa(lp1218
g204
ag3
aF2052.52
aI4215
aI209
aa(lp1219
g204
ag3
aF2054.73
aI4220
aI209
aa(lp1220
g204
ag3
aF2057.15
aI4225
aI209
aa(lp1221
g204
ag3
aF2059.13
aI4229
aI209
aa(lp1222
g204
ag3
aF2060.68
aI4232
aI209
aa(lp1223
g204
ag3
aF2062.65
aI4236
aI209
aa(lp1224
g204
ag3
aF2064.61
aI4240
aI209
aa(lp1225
g204
ag3
aF2068.45
aI4248
aI209
aa(lp1226
g204
ag3
aF2071.11
aI4254
aI209
aa(lp1227
g204
ag3
aF2073.13
aI4258
aI209
aa(lp1228
g204
ag3
aF2075.48
aI4263
aI209
aa(lp1229
g204
ag3
aF2078.12
aI4269
aI209
aa(lp1230
g204
ag3
aF2080.39
aI4274
aI209
aa(lp1231
g204
ag3
aF2082.56
aI4279
aI209
aa(lp1232
g204
ag3
aF2084.78
aI4284
aI209
aa(lp1233
g204
ag3
aF2088.03
aI4292
aI209
aa(lp1234
g204
ag3
aF2090.89
aI4299
aI209
aa(lp1235
g204
ag3
aF2093.49
aI4305
aI209
aa(lp1236
g204
ag3
aF2096.01
aI4311
aI209
aa(lp1237
g204
ag3
aF2098.53
aI4317
aI209
aa(lp1238
g204
ag3
aF2101.61
aI4324
aI209
aa(lp1239
g204
ag3
aF2105.21
aI4333
aI209
aa(lp1240
g204
ag3
aF2107.82
aI4339
aI209
aa(lp1241
g204
ag3
aF2110.41
aI4345
aI209
aa(lp1242
g204
ag3
aF2113.07
aI4351
aI209
aa(lp1243
g204
ag3
aF2116.06
aI4358
aI209
aa(lp1244
g204
ag3
aF2118.64
aI4364
aI209
aa(lp1245
g204
ag3
aF2119.94
aI4366
aI209
aa(lp1246
g204
ag3
aF2121.48
aI4369
aI209
aa(lp1247
g204
ag3
aF2122.68
aI4371
aI209
aa(lp1248
g204
ag3
aF2126.27
aI4380
aI209
aa(lp1249
g204
ag3
aF2128.97
aI4386
aI209
aa(lp1250
g204
ag3
aF2132.05
aI4393
aI209
aa(lp1251
g204
ag3
aF2134.99
aI4400
aI209
aa(lp1252
g204
ag3
aF2138.27
aI4408
aI209
aa(lp1253
g204
ag3
aF2140.28
aI4412
aI209
aa(lp1254
g204
ag3
aF2141.52
aI4414
aI209
aa(lp1255
g204
ag3
aF2144.28
aI4420
aI209
aa(lp1256
g204
ag3
aF2147.57
aI4428
aI209
aa(lp1257
g204
ag3
aF2148.77
aI4430
aI209
aa(lp1258
g204
ag3
aF2151.42
aI4436
aI209
aa(lp1259
g204
ag3
aF2153.25
aI4440
aI209
aa(lp1260
g204
ag3
aF2156.45
aI4448
aI209
aa(lp1261
g204
ag3
aF2158.5
aI4452
aI209
aa(lp1262
g204
ag3
aF2161.77
aI4460
aI209
aa(lp1263
g204
ag3
aF2164.63
aI4467
aI209
aa(lp1264
g204
ag3
aF2167.83
aI4475
aI209
aa(lp1265
g204
ag3
aF2170.84
aI4482
aI209
aa(lp1266
g204
ag3
aF2173.71
aI4489
aI209
aa(lp1267
g204
ag3
aF2176.28
aI4495
aI209
aa(lp1268
g204
ag3
aF2178.47
aI4500
aI209
aa(lp1269
g204
ag3
aF2180.33
aI4504
aI209
aa(lp1270
g204
ag3
aF2182.65
aI4509
aI209
aa(lp1271
g204
ag3
aF2184.6
aI4513
aI209
aa(lp1272
g204
ag3
aF2186.58
aI4517
aI209
aa(lp1273
g204
ag3
aF2188.56
aI4521
aI209
aa(lp1274
g204
ag3
aF2191.76
aI4529
aI209
aa(lp1275
g204
ag3
aF2194.36
aI4535
aI209
aa(lp1276
g204
ag3
aF2197.36
aI4542
aI209
aa(lp1277
g204
ag3
aF2200.21
aI4549
aI209
aa(lp1278
g204
ag3
aF2201.87
aI4552
aI209
aa(lp1279
g204
ag3
aF2204.17
aI4557
aI209
aa(lp1280
g204
ag3
aF2206.39
aI4562
aI209
aa(lp1281
g204
ag3
aF2208.15
aI4565
aI209
aa(lp1282
g204
ag3
aF2211.07
aI4572
aI209
aa(lp1283
g204
ag3
aF2213.72
aI4578
aI209
aa(lp1284
g204
ag3
aF2216.33
aI4584
aI209
aa(lp1285
g204
ag3
aF2219.31
aI4591
aI209
aa(lp1286
g204
ag3
aF2221.21
aI4595
aI209
aa(lp1287
g204
ag3
aF2224.22
aI4602
aI209
aa(lp1288
g204
ag3
aF2226.26
aI4606
aI209
aa(lp1289
g204
ag3
aF2228.55
aI4611
aI209
aa(lp1290
g204
ag3
aF2231.27
aI4617
aI209
aa(lp1291
g204
ag3
aF2232.82
aI4620
aI209
aa(lp1292
g204
ag3
aF2234.92
aI4624
aI209
aa(lp1293
g204
ag3
aF2237.26
aI4629
aI209
aa(lp1294
g204
ag3
aF2239.2
aI4633
aI209
aa(lp1295
g204
ag3
aF2241.24
aI4637
aI209
aa(lp1296
g204
ag3
aF2243.09
aI4641
aI209
aa(lp1297
g204
ag3
aF2246.38
aI4649
aI209
aa(lp1298
g204
ag3
aF2249.27
aI4656
aI209
aa(lp1299
g204
ag3
aF2250.13
aI4657
aI209
aa(lp1300
g204
ag3
aF2253.27
aI4663
aI209
aa(lp1301
g204
ag3
aF2255.12
aI4667
aI209
aa(lp1302
g204
ag3
aF2257.69
aI4673
aI209
aa(lp1303
g204
ag3
aF2258.9
aI4675
aI209
aa(lp1304
g204
ag3
aF2260.85
aI4679
aI209
aa(lp1305
g204
ag3
aF2261.7
aI4680
aI209
aa(lp1306
g204
ag3
aF2264.0
aI4685
aI209
aa(lp1307
g204
ag3
aF2265.92
aI4689
aI209
aa(lp1308
g204
ag3
aF2268.53
aI4695
aI209
aa(lp1309
g204
ag3
aF2271.46
aI4702
aI209
aa(lp1310
g204
ag3
aF2273.49
aI4706
aI209
aa(lp1311
g204
ag3
aF2275.83
aI4711
aI209
aa(lp1312
g204
ag3
aF2278.07
aI4716
aI209
aa(lp1313
g204
ag3
aF2279.4
aI4718
aI209
aa(lp1314
g204
ag3
aF2282.26
aI4725
aI209
aa(lp1315
g204
ag3
aF2284.15
aI4729
aI209
aa(lp1316
g204
ag3
aF2286.55
aI4734
aI209
aa(lp1317
g204
ag3
aF2288.78
aI4739
aI209
aa(lp1318
g204
ag3
aF2291.3
aI4745
aI209
aa(lp1319
g204
ag3
aF2293.66
aI4750
aI209
aa(lp1320
g204
ag3
aF2295.84
aI4755
aI209
aa(lp1321
g204
ag3
aF2298.42
aI4761
aI209
aa(lp1322
g204
ag3
aF2301.17
aI4767
aI209
aa(lp1323
g204
ag3
aF2303.44
aI4772
aI209
aa(lp1324
g204
ag3
aF2307.02
aI4781
aI209
aa(lp1325
g204
ag3
aF2309.93
aI4788
aI209
aa(lp1326
g204
ag3
aF2312.62
aI4794
aI209
aa(lp1327
g204
ag3
aF2314.56
aI4798
aI209
aa(lp1328
g204
ag3
aF2316.84
aI4803
aI209
aa(lp1329
g204
ag3
aF2319.17
aI4808
aI209
aa(lp1330
g204
ag3
aF2321.03
aI4812
aI209
aa(lp1331
g204
ag3
aF2323.01
aI4816
aI209
aa(lp1332
g204
ag3
aF2325.89
aI4823
aI209
aa(lp1333
g204
ag3
aF2327.39
aI4826
aI209
aa(lp1334
g204
ag3
aF2329.79
aI4831
aI209
aa(lp1335
g204
ag3
aF2331.82
aI4835
aI209
aa(lp1336
g204
ag3
aF2333.43
aI4838
aI209
aa(lp1337
g204
ag3
aF2335.7
aI4843
aI209
aa(lp1338
g204
ag3
aF2338.27
aI4849
aI209
aa(lp1339
g204
ag3
aF2339.91
aI4852
aI209
aa(lp1340
g204
ag3
aF2342.9
aI4859
aI209
aa(lp1341
g204
ag3
aF2346.22
aI4867
aI209
aa(lp1342
g204
ag3
aF2348.56
aI4872
aI209
aa(lp1343
g204
ag3
aF2350.44
aI4876
aI209
aa(lp1344
g204
ag3
aF2353.15
aI4882
aI209
aa(lp1345
g204
ag3
aF2355.74
aI4888
aI209
aa(lp1346
g204
ag3
aF2357.99
aI4893
aI209
aa(lp1347
g204
ag3
aF2361.56
aI4902
aI209
aa(lp1348
g204
ag3
aF2363.14
aI4905
aI209
aa(lp1349
g204
ag3
aF2365.22
aI4909
aI209
aa(lp1350
g204
ag3
aF2368.18
aI4916
aI209
aa(lp1351
g204
ag3
aF2370.79
aI4922
aI209
aa(lp1352
g204
ag3
aF2373.34
aI4928
aI209
aa(lp1353
g204
ag3
aF2375.25
aI4932
aI209
aa(lp1354
g204
ag3
aF2377.44
aI4937
aI209
aa(lp1355
g204
ag3
aF2380.07
aI4943
aI209
aa(lp1356
g204
ag3
aF2381.63
aI4946
aI209
aa(lp1357
g204
ag3
aF2383.86
aI4951
aI209
aa(lp1358
g204
ag3
aF2385.82
aI4955
aI209
aa(lp1359
g204
ag3
aF2387.46
aI4958
aI209
aa(lp1360
g204
ag3
aF2389.17
aI4961
aI209
aa(lp1361
g204
ag3
aF2390.84
aI4964
aI209
aa(lp1362
g204
ag3
aF2393.71
aI4971
aI209
aa(lp1363
g204
ag3
aF2395.32
aI4974
aI209
aa(lp1364
g204
ag3
aF2397.6
aI4979
aI209
aa(lp1365
g204
ag3
aF2400.81
aI4987
aI209
aa(lp1366
g204
ag3
aF2403.47
aI4993
aI209
aa(lp1367
g204
ag3
aF2406.69
aI5001
aI209
aa(lp1368
g204
ag3
aF2408.65
aI5005
aI209
aa(lp1369
g204
ag3
aF2409.93
aI5007
aI209
aa(lp1370
g204
ag3
aF2410.89
aI5008
aI209
aa(lp1371
g204
ag3
aF2413.62
aI5014
aI209
aa(lp1372
g204
ag3
aF2415.61
aI5018
aI209
aa(lp1373
g204
ag3
aF2418.53
aI5025
aI209
aa(lp1374
g204
ag3
aF2420.38
aI5029
aI209
aa(lp1375
g204
ag3
aF2423.38
aI5036
aI209
aa(lp1376
g204
ag3
aF2425.63
aI5041
aI209
aa(lp1377
g204
ag3
aF2427.56
aI5045
aI209
aa(lp1378
g204
ag3
aF2429.15
aI5048
aI209
aa(lp1379
g204
ag3
aF2431.08
aI5052
aI209
aa(lp1380
g204
ag3
aF2432.99
aI5056
aI209
aa(lp1381
g204
ag3
aF2435.62
aI5062
aI209
aa(lp1382
g204
ag3
aF2436.84
aI5064
aI209
aa(lp1383
g204
ag3
aF2438.78
aI5068
aI209
aa(lp1384
g204
ag3
aF2440.63
aI5072
aI209
aa(lp1385
g204
ag3
aF2441.82
aI5074
aI209
aa(lp1386
g204
ag3
aF2443.69
aI5078
aI209
aa(lp1387
g204
ag3
aF2445.94
aI5083
aI209
aa(lp1388
g204
ag3
aF2447.46
aI5086
aI209
aa(lp1389
g204
ag3
aF2449.66
aI5091
aI209
aa(lp1390
g204
ag3
aF2452.59
aI5098
aI209
aa(lp1391
g204
ag3
aF2454.47
aI5102
aI209
aa(lp1392
g204
ag3
aF2455.99
aI5105
aI209
aa(lp1393
g204
ag3
aF2458.01
aI5109
aI209
aa(lp1394
g204
ag3
aF2460.26
aI5114
aI209
aa(lp1395
g204
ag3
aF2462.92
aI5117
aI663
aa(lp1396
g204
ag3
aF2464.55
aI5120
aI663
aa(lp1397
g204
ag3
aF2467.2
aI5126
aI663
aa(lp1398
g204
ag3
aF2470.94
aI5135
aI663
aa(lp1399
g204
ag3
aF2474.29
aI5143
aI663
aa(lp1400
g204
ag3
aF2477.16
aI5149
aI663
aa(lp1401
g204
ag3
aF2481.46
aI5159
aI663
aa(lp1402
g204
ag3
aF2484.28
aI5165
aI663
aa(lp1403
g204
ag3
aF2486.62
aI5170
aI663
aa(lp1404
g204
ag3
aF2489.58
aI5177
aI663
aa(lp1405
g204
ag3
aF2491.57
aI5181
aI663
aa(lp1406
g204
ag3
aF2494.02
aI5186
aI663
aa(lp1407
g204
ag3
aF2497.01
aI5193
aI663
aa(lp1408
g204
ag3
aF2499.36
aI5198
aI663
aa(lp1409
g204
ag3
aF2502.05
aI5204
aI663
aa(lp1410
g204
ag3
aF2505.23
aI5211
aI663
aa(lp1411
g204
ag3
aF2508.98
aI5220
aI663
aa(lp1412
g204
ag3
aF2511.48
aI5225
aI663
aa(lp1413
g204
ag3
aF2515.05
aI5233
aI663
aa(lp1414
g204
ag3
aF2517.66
aI5239
aI663
aa(lp1415
g204
ag3
aF2520.72
aI5246
aI663
aa(lp1416
g204
ag3
aF2524.48
aI5255
aI663
aa(lp1417
g204
ag3
aF2527.82
aI5262
aI663
aa(lp1418
g204
ag3
aF2531.32
aI5270
aI663
aa(lp1419
g204
ag3
aF2534.09
aI5276
aI663
aa(lp1420
g204
ag3
aF2536.37
aI5281
aI663
aa(lp1421
g204
ag3
aF2540.16
aI5290
aI663
aa(lp1422
g204
ag3
aF2543.04
aI5296
aI663
aa(lp1423
g204
ag3
aF2545.04
aI5300
aI663
aa(lp1424
g204
ag3
aF2548.79
aI5309
aI663
aa(lp1425
g204
ag3
aF2551.39
aI5315
aI663
aa(lp1426
g204
ag3
aF2554.34
aI5322
aI663
aa(lp1427
g204
ag3
aF2557.74
aI5330
aI663
aa(lp1428
g204
ag3
aF2559.67
aI5334
aI663
aa(lp1429
g204
ag3
aF2562.82
aI5341
aI663
aa(lp1430
g204
ag3
aF2565.96
aI5348
aI663
aa(lp1431
g204
ag3
aF2569.35
aI5356
aI663
aa(lp1432
g204
ag3
aF2572.44
aI5363
aI663
aa(lp1433
g204
ag3
aF2575.49
aI5370
aI663
aa(lp1434
g204
ag3
aF2578.99
aI5378
aI663
aa(lp1435
g204
ag3
aF2581.24
aI5382
aI663
aa(lp1436
g204
ag3
aF2584.11
aI5388
aI663
aa(lp1437
g204
ag3
aF2587.66
aI5395
aI663
aa(lp1438
g204
ag3
aF2590.86
aI5402
aI663
aa(lp1439
g204
ag3
aF2594.42
aI5410
aI663
aa(lp1440
g204
ag3
aF2598.17
aI5418
aI663
aa(lp1441
g204
ag3
aF2601.89
aI5426
aI663
aa(lp1442
g204
ag3
aF2605.13
aI5433
aI663
aa(lp1443
g204
ag3
aF2608.7
aI5441
aI663
aa(lp1444
g204
ag3
aF2612.31
aI5449
aI663
aa(lp1445
g204
ag3
aF2615.65
aI5455
aI663
aa(lp1446
g204
ag3
aF2618.5
aI5461
aI663
aa(lp1447
g204
ag3
aF2620.96
aI5466
aI663
aa(lp1448
g204
ag3
aF2624.95
aI5475
aI663
aa(lp1449
g204
ag3
aF2628.12
aI5482
aI663
aa(lp1450
g204
ag3
aF2630.84
aI5488
aI663
aa(lp1451
g204
ag3
aF2633.66
aI5494
aI663
aa(lp1452
g204
ag3
aF2636.39
aI5500
aI663
aa(lp1453
g204
ag3
aF2638.95
aI5505
aI663
aa(lp1454
g204
ag3
aF2642.09
aI5512
aI663
aa(lp1455
g204
ag3
aF2645.1
aI5518
aI663
aa(lp1456
g204
ag3
aF2648.2
aI5525
aI663
aa(lp1457
g204
ag3
aF2651.3
aI5532
aI663
aa(lp1458
g204
ag3
aF2655.07
aI5540
aI663
aa(lp1459
g204
ag3
aF2657.59
aI5545
aI663
aa(lp1460
g204
ag3
aF2660.06
aI5550
aI663
aa(lp1461
g204
ag3
aF2661.65
aI5553
aI663
aa(lp1462
g204
ag3
aF2665.18
aI5560
aI663
aa(lp1463
g204
ag3
aF2667.4
aI5564
aI663
aa(lp1464
g204
ag3
aF2670.24
aI5570
aI663
aa(lp1465
g204
ag3
aF2673.21
aI5577
aI663
aa(lp1466
g204
ag3
aF2675.26
aI5581
aI663
aa(lp1467
g204
ag3
aF2677.86
aI5586
aI663
aa(lp1468
g204
ag3
aF2681.2
aI5594
aI663
aa(lp1469
g204
ag3
aF2684.09
aI5600
aI663
aa(lp1470
g204
ag3
aF2687.07
aI5606
aI663
aa(lp1471
g204
ag3
aF2689.48
aI5611
aI663
aa(lp1472
g204
ag3
aF2693.22
aI5620
aI663
aa(lp1473
g204
ag3
aF2697.67
aI5630
aI663
aa(lp1474
g204
ag3
aF2701.2
aI5638
aI663
aa(lp1475
g204
ag3
aF2703.87
aI5644
aI663
aa(lp1476
g204
ag3
aF2706.62
aI5650
aI663
aa(lp1477
g204
ag3
aF2710.55
aI5659
aI663
aa(lp1478
g204
ag3
aF2714.28
aI5668
aI663
aa(lp1479
g204
ag3
aF2717.26
aI5675
aI663
aa(lp1480
g204
ag3
aF2719.99
aI5681
aI663
aa(lp1481
g204
ag3
aF2723.44
aI5689
aI663
aa(lp1482
g204
ag3
aF2726.02
aI5694
aI663
aa(lp1483
g204
ag3
aF2729.08
aI5700
aI663
aa(lp1484
g204
ag3
aF2732.39
aI5707
aI663
aa(lp1485
g204
ag3
aF2735.41
aI5714
aI663
aa(lp1486
g204
ag3
aF2737.88
aI5719
aI663
aa(lp1487
g204
ag3
aF2740.67
aI5725
aI663
aa(lp1488
g204
ag3
aF2743.38
aI5731
aI663
aa(lp1489
g204
ag3
aF2746.33
aI5737
aI663
aa(lp1490
g204
ag3
aF2749.07
aI5743
aI663
aa(lp1491
g204
ag3
aF2752.09
aI5750
aI663
aa(lp1492
g204
ag3
aF2754.3
aI5754
aI663
aa(lp1493
g204
ag3
aF2756.73
aI5759
aI663
aa(lp1494
g204
ag3
aF2759.47
aI5765
aI663
aa(lp1495
g204
ag3
aF2763.38
aI5774
aI663
aa(lp1496
g204
ag3
aF2765.75
aI5779
aI663
aa(lp1497
g204
ag3
aF2768.74
aI5786
aI663
aa(lp1498
g204
ag3
aF2771.14
aI5791
aI663
aa(lp1499
g204
ag3
aF2773.11
aI5795
aI663
aa(lp1500
g204
ag3
aF2776.58
aI5803
aI663
aa(lp1501
g204
ag3
aF2780.94
aI5813
aI663
aa(lp1502
g204
ag3
aF2783.65
aI5819
aI663
aa(lp1503
g204
ag3
aF2786.38
aI5825
aI663
aa(lp1504
g204
ag3
aF2788.42
aI5829
aI663
aa(lp1505
g204
ag3
aF2789.64
aI5831
aI663
aa(lp1506
g204
ag3
aF2793.07
aI5839
aI663
aa(lp1507
g204
ag3
aF2796.13
aI5846
aI663
aa(lp1508
g204
ag3
aF2798.94
aI5852
aI663
aa(lp1509
g204
ag3
aF2800.9
aI5856
aI663
aa(lp1510
g204
ag3
aF2803.64
aI5862
aI663
aa(lp1511
g204
ag3
aF2805.21
aI5865
aI663
aa(lp1512
g204
ag3
aF2807.53
aI5870
aI663
aa(lp1513
g204
ag3
aF2810.7
aI5877
aI663
aa(lp1514
g204
ag3
aF2813.25
aI5882
aI663
aa(lp1515
g204
ag3
aF2816.46
aI5889
aI663
aa(lp1516
g204
ag3
aF2817.69
aI5891
aI663
aa(lp1517
g204
ag3
aF2819.25
aI5894
aI663
aa(lp1518
g204
ag3
aF2821.06
aI5897
aI663
aa(lp1519
g204
ag3
aF2822.98
aI5901
aI663
aa(lp1520
g204
ag3
aF2824.89
aI5905
aI663
aa(lp1521
g204
ag3
aF2827.37
aI5910
aI663
aa(lp1522
g204
ag3
aF2830.2
aI5916
aI663
aa(lp1523
g204
ag3
aF2832.57
aI5921
aI663
aa(lp1524
g204
ag3
aF2835.68
aI5928
aI663
aa(lp1525
g204
ag3
aF2838.16
aI5933
aI663
aa(lp1526
g204
ag3
aF2840.42
aI5938
aI663
aa(lp1527
g204
ag3
aF2843.05
aI5944
aI663
aa(lp1528
g204
ag3
aF2845.67
aI5950
aI663
aa(lp1529
g204
ag3
aF2848.46
aI5956
aI663
aa(lp1530
g204
ag3
aF2851.51
aI5963
aI663
aa(lp1531
g204
ag3
aF2855.03
aI5971
aI663
aa(lp1532
g204
ag3
aF2857.07
aI5975
aI663
aa(lp1533
g204
ag3
aF2860.15
aI5982
aI663
aa(lp1534
g204
ag3
aF2862.6
aI5987
aI663
aa(lp1535
g204
ag3
aF2864.74
aI5991
aI663
aa(lp1536
g204
ag3
aF2867.83
aI5998
aI663
aa(lp1537
g204
ag3
aF2869.49
aI6001
aI663
aa(lp1538
g204
ag3
aF2872.69
aI6008
aI663
aa(lp1539
g204
ag3
aF2875.49
aI6014
aI663
aa(lp1540
g204
ag3
aF2878.4
aI6020
aI663
aa(lp1541
g204
ag3
aF2881.13
aI6026
aI663
aa(lp1542
g204
ag3
aF2883.96
aI6032
aI663
aa(lp1543
g204
ag3
aF2886.27
aI6037
aI663
aa(lp1544
g204
ag3
aF2889.5
aI6044
aI663
aa(lp1545
g204
ag3
aF2892.21
aI6050
aI663
aa(lp1546
g204
ag3
aF2894.3
aI6054
aI663
aa(lp1547
g204
ag3
aF2896.63
aI6059
aI663
aa(lp1548
g204
ag3
aF2899.58
aI6065
aI663
aa(lp1549
g204
ag3
aF2902.12
aI6070
aI663
aa(lp1550
g204
ag3
aF2905.28
aI6077
aI663
aa(lp1551
g204
ag3
aF2908.16
aI6083
aI663
aa(lp1552
g204
ag3
aF2911.64
aI6091
aI663
aa(lp1553
g204
ag3
aF2913.64
aI6095
aI663
aa(lp1554
g204
ag3
aF2916.62
aI6102
aI663
aa(lp1555
g204
ag3
aF2919.44
aI6108
aI663
aa(lp1556
g204
ag3
aF2921.11
aI6111
aI663
aa(lp1557
g204
ag3
aF2923.78
aI6117
aI663
aa(lp1558
g204
ag3
aF2926.17
aI6122
aI663
aa(lp1559
g204
ag3
aF2928.16
aI6126
aI663
aa(lp1560
g204
ag3
aF2931.25
aI6133
aI663
aa(lp1561
g204
ag3
aF2933.99
aI6139
aI663
aa(lp1562
g204
ag3
aF2936.36
aI6144
aI663
aa(lp1563
g204
ag3
aF2938.71
aI6149
aI663
aa(lp1564
g204
ag3
aF2940.84
aI6153
aI663
aa(lp1565
g204
ag3
aF2944.01
aI6160
aI663
aa(lp1566
g204
ag3
aF2946.86
aI6166
aI663
aa(lp1567
g204
ag3
aF2949.26
aI6171
aI663
aa(lp1568
g204
ag3
aF2952.33
aI6178
aI663
aa(lp1569
g204
ag3
aF2954.26
aI6182
aI663
aa(lp1570
g204
ag3
aF2957.3
aI6189
aI663
aa(lp1571
g204
ag3
aF2960.16
aI6195
aI663
aa(lp1572
g204
ag3
aF2962.26
aI6199
aI663
aa(lp1573
g204
ag3
aF2965.07
aI6205
aI663
aa(lp1574
g204
ag3
aF2968.23
aI6212
aI663
aa(lp1575
g204
ag3
aF2970.51
aI6217
aI663
aa(lp1576
g204
ag3
aF2973.54
aI6224
aI663
aa(lp1577
g204
ag3
aF2975.84
aI6229
aI663
aa(lp1578
g204
ag3
aF2979.63
aI6238
aI663
aa(lp1579
g204
ag3
aF2982.73
aI6245
aI663
aa(lp1580
g204
ag3
aF2985.85
aI6252
aI663
aa(lp1581
g204
ag3
aF2988.46
aI6258
aI663
aa(lp1582
g204
ag3
aF2991.02
aI6263
aI663
aa(lp1583
g204
ag3
aF2994.03
aI6269
aI663
aa(lp1584
g204
ag3
aF2997.38
aI6275
aI663
aa(lp1585
g204
ag3
aF2999.88
aI6280
aI663
aa(lp1586
g204
ag3
aF3002.12
aI6284
aI663
aa(lp1587
g204
ag3
aF3005.4
aI6291
aI663
aa(lp1588
g204
ag3
aF3008.9
aI6299
aI663
aa(lp1589
g204
ag3
aF3012.93
aI6308
aI663
aa(lp1590
g204
ag3
aF3015.01
aI6312
aI663
aa(lp1591
g204
ag3
aF3018.14
aI6319
aI663
aa(lp1592
g204
ag3
aF3021.92
aI6327
aI663
aa(lp1593
g204
ag3
aF3024.63
aI6333
aI663
aa(lp1594
g204
ag3
aF3027.74
aI6340
aI663
aa(lp1595
g204
ag3
aF3030.53
aI6346
aI663
aa(lp1596
g204
ag3
aF3034.12
aI6354
aI663
aa(lp1597
g204
ag3
aF3036.22
aI6358
aI663
aa(lp1598
g204
ag3
aF3039.36
aI6365
aI663
aa(lp1599
g204
ag3
aF3041.09
aI6368
aI663
aa(lp1600
g204
ag3
aF3043.94
aI6374
aI663
aa(lp1601
g204
ag3
aF3047.21
aI6381
aI663
aa(lp1602
g204
ag3
aF3050.45
aI6388
aI663
aa(lp1603
g204
ag3
aF3054.0
aI6396
aI663
aa(lp1604
g204
ag3
aF3057.4
aI6404
aI663
aa(lp1605
g204
ag3
aF3060.53
aI6411
aI663
aa(lp1606
g204
ag3
aF3063.24
aI6417
aI663
aa(lp1607
g204
ag3
aF3066.35
aI6424
aI663
aa(lp1608
g204
ag3
aF3069.86
aI6432
aI663
aa(lp1609
g204
ag3
aF3072.07
aI6436
aI663
aa(lp1610
g204
ag3
aF3075.26
aI6443
aI663
aa(lp1611
g204
ag3
aF3077.74
aI6448
aI663
aa(lp1612
g204
ag3
aF3080.23
aI6453
aI663
aa(lp1613
g204
ag3
aF3083.14
aI6459
aI663
aa(lp1614
g204
ag3
aF3086.31
aI6466
aI663
aa(lp1615
g204
ag3
aF3089.36
aI6473
aI663
aa(lp1616
g204
ag3
aF3093.04
aI6481
aI663
aa(lp1617
g204
ag3
aF3095.49
aI6486
aI663
aa(lp1618
g204
ag3
aF3099.16
aI6494
aI663
aa(lp1619
g204
ag3
aF3101.76
aI6499
aI663
aa(lp1620
g204
ag3
aF3104.43
aI6504
aI663
aa(lp1621
g204
ag3
aF3107.29
aI6510
aI663
aa(lp1622
g204
ag3
aF3109.68
aI6515
aI663
aa(lp1623
g204
ag3
aF3111.5
aI6518
aI663
aa(lp1624
g204
ag3
aF3113.86
aI6523
aI663
aa(lp1625
g204
ag3
aF3117.27
aI6531
aI663
aa(lp1626
g204
ag3
aF3119.82
aI6536
aI663
aa(lp1627
g204
ag3
aF3123.2
aI6544
aI663
aa(lp1628
g204
ag3
aF3125.72
aI6549
aI663
aa(lp1629
g204
ag3
aF3128.88
aI6556
aI663
aa(lp1630
g204
ag3
aF3131.66
aI6562
aI663
aa(lp1631
g204
ag3
aF3135.28
aI6570
aI663
aa(lp1632
g204
ag3
aF3138.44
aI6577
aI663
aa(lp1633
g204
ag3
aF3141.55
aI6584
aI663
aa(lp1634
g204
ag3
aF3144.1
aI6589
aI663
aa(lp1635
g204
ag3
aF3147.14
aI6596
aI663
aa(lp1636
g204
ag3
aF3150.22
aI6603
aI663
aa(lp1637
g204
ag3
aF3153.11
aI6609
aI663
aa(lp1638
g204
ag3
aF3156.01
aI6615
aI663
aa(lp1639
g204
ag3
aF3158.59
aI6620
aI663
aa(lp1640
g204
ag3
aF3162.43
aI6626
aI663
aa(lp1641
g204
ag3
aF3166.02
aI6634
aI663
aa(lp1642
g204
ag3
aF3168.51
aI6639
aI663
aa(lp1643
g204
ag3
aF3171.72
aI6646
aI663
aa(lp1644
g204
ag3
aF3174.0
aI6650
aI663
aa(lp1645
g204
ag3
aF3176.65
aI6655
aI663
aa(lp1646
g204
ag3
aF3179.66
aI6661
aI663
aa(lp1647
g204
ag3
aF3182.32
aI6667
aI663
aa(lp1648
g204
ag3
aF3185.54
aI6674
aI663
aa(lp1649
g204
ag3
aF3187.87
aI6678
aI663
aa(lp1650
g204
ag3
aF3190.76
aI6684
aI663
aa(lp1651
g204
ag3
aF3194.19
aI6692
aI663
aa(lp1652
g204
ag3
aF3197.77
aI6700
aI663
aa(lp1653
g204
ag3
aF3200.41
aI6706
aI663
aa(lp1654
g204
ag3
aF3202.83
aI6711
aI663
aa(lp1655
g204
ag3
aF3204.98
aI6715
aI663
aa(lp1656
g204
ag3
aF3207.86
aI6721
aI663
aa(lp1657
g204
ag3
aF3211.63
aI6730
aI663
aa(lp1658
g204
ag3
aF3213.31
aI6733
aI663
aa(lp1659
g204
ag3
aF3215.1
aI6736
aI663
aa(lp1660
g204
ag3
aF3218.26
aI6743
aI663
aa(lp1661
g204
ag3
aF3221.42
aI6750
aI663
aa(lp1662
g204
ag3
aF3223.17
aI6753
aI663
aa(lp1663
g204
ag3
aF3225.96
aI6759
aI663
aa(lp1664
g204
ag3
aF3228.74
aI6765
aI663
aa(lp1665
g204
ag3
aF3231.89
aI6772
aI663
aa(lp1666
g204
ag3
aF3233.85
aI6776
aI663
aa(lp1667
g204
ag3
aF3236.6
aI6782
aI663
aa(lp1668
g204
ag3
aF3238.99
aI6787
aI663
aa(lp1669
g204
ag3
aF3241.69
aI6793
aI663
aa(lp1670
g204
ag3
aF3242.76
aI6794
aI663
aa(lp1671
g204
ag3
aF3244.72
aI6798
aI663
aa(lp1672
g204
ag3
aF3248.08
aI6805
aI663
aa(lp1673
g204
ag3
aF3251.96
aI6814
aI663
aa(lp1674
g204
ag3
aF3253.63
aI6817
aI663
aa(lp1675
g204
ag3
aF3256.92
aI6824
aI663
aa(lp1676
g204
ag3
aF3260.59
aI6832
aI663
aa(lp1677
g204
ag3
aF3263.04
aI6837
aI663
aa(lp1678
g204
ag3
aF3264.83
aI6840
aI663
aa(lp1679
g204
ag3
aF3266.54
aI6843
aI663
aa(lp1680
g204
ag3
aF3268.95
aI6848
aI663
aa(lp1681
g204
ag3
aF3271.12
aI6852
aI663
aa(lp1682
g204
ag3
aF3273.53
aI6857
aI663
aa(lp1683
g204
ag3
aF3276.67
aI6864
aI663
aa(lp1684
g204
ag3
aF3280.22
aI6872
aI663
aa(lp1685
g204
ag3
aF3283.24
aI6879
aI663
aa(lp1686
g204
ag3
aF3286.72
aI6887
aI663
aa(lp1687
g204
ag3
aF3288.91
aI6891
aI663
aa(lp1688
g204
ag3
aF3291.64
aI6897
aI663
aa(lp1689
g204
ag3
aF3294.39
aI6903
aI663
aa(lp1690
g204
ag3
aF3296.74
aI6908
aI663
aa(lp1691
g204
ag3
aF3299.67
aI6914
aI663
aa(lp1692
g204
ag3
aF3302.45
aI6920
aI663
aa(lp1693
g204
ag3
aF3303.71
aI6922
aI663
aa(lp1694
g204
ag3
aF3306.13
aI6927
aI663
aa(lp1695
g204
ag3
aF3308.55
aI6932
aI663
aa(lp1696
g204
ag3
aF3311.34
aI6938
aI663
aa(lp1697
g204
ag3
aF3314.05
aI6944
aI663
aa(lp1698
g204
ag3
aF3317.47
aI6952
aI663
aa(lp1699
g204
ag3
aF3320.39
aI6958
aI663
aa(lp1700
g204
ag3
aF3322.32
aI6961
aI663
aa(lp1701
g204
ag3
aF3324.77
aI6966
aI663
aa(lp1702
g204
ag3
aF3326.66
aI6969
aI663
aa(lp1703
g204
ag3
aF3329.51
aI6975
aI663
aa(lp1704
g204
ag3
aF3333.22
aI6983
aI663
aa(lp1705
g204
ag3
aF3335.6
aI6988
aI663
aa(lp1706
g204
ag3
aF3338.81
aI6995
aI663
aa(lp1707
g204
ag3
aF3341.96
aI7002
aI663
aa(lp1708
g204
ag3
aF3344.37
aI7007
aI663
aa(lp1709
g204
ag3
aF3347.96
aI7015
aI663
aa(lp1710
g204
ag3
aF3350.9
aI7021
aI663
aa(lp1711
g204
ag3
aF3353.36
aI7026
aI663
aa(lp1712
g204
ag3
aF3357.74
aI7035
aI663
aa(lp1713
g204
ag3
aF3360.11
aI7040
aI663
aa(lp1714
g204
ag3
aF3362.93
aI7046
aI663
aa(lp1715
g204
ag3
aF3364.67
aI7049
aI663
aa(lp1716
g204
ag3
aF3366.7
aI7053
aI663
aa(lp1717
g204
ag3
aF3368.89
aI7057
aI663
aa(lp1718
g204
ag3
aF3370.98
aI7061
aI663
aa(lp1719
g204
ag3
aF3374.22
aI7068
aI663
aa(lp1720
g204
ag3
aF3376.35
aI7072
aI663
aa(lp1721
g204
ag3
aF3380.1
aI7079
aI663
aa(lp1722
g204
ag3
aF3383.72
aI7087
aI663
aa(lp1723
g204
ag3
aF3387.28
aI7095
aI663
aa(lp1724
g204
ag3
aF3390.15
aI7101
aI663
aa(lp1725
g204
ag3
aF3393.13
aI7107
aI663
aa(lp1726
g204
ag3
aF3396.03
aI7113
aI663
aa(lp1727
g204
ag3
aF3398.76
aI7119
aI663
aa(lp1728
g204
ag3
aF3400.8
aI7123
aI663
aa(lp1729
g204
ag3
aF3403.55
aI7129
aI663
aa(lp1730
g204
ag3
aF3406.37
aI7135
aI663
aa(lp1731
g204
ag3
aF3409.21
aI7141
aI663
aa(lp1732
g204
ag3
aF3411.99
aI7147
aI663
aa(lp1733
g204
ag3
aF3414.75
aI7152
aI663
aa(lp1734
g204
ag3
aF3417.34
aI7157
aI663
aa(lp1735
g204
ag3
aF3419.4
aI7161
aI663
aa(lp1736
g204
ag3
aF3421.22
aI7164
aI663
aa(lp1737
g204
ag3
aF3424.06
aI7170
aI663
aa(lp1738
g204
ag3
aF3427.08
aI7176
aI663
aa(lp1739
g204
ag3
aF3429.89
aI7181
aI663
aa(lp1740
g204
ag3
aF3433.08
aI7187
aI663
aa(lp1741
g204
ag3
aF3436.76
aI7194
aI663
aa(lp1742
g204
ag3
aF3439.12
aI7198
aI663
aa(lp1743
g204
ag3
aF3442.18
aI7204
aI663
aa(lp1744
g204
ag3
aF3445.27
aI7210
aI663
aa(lp1745
g204
ag3
aF3447.68
aI7214
aI663
aa(lp1746
g204
ag3
aF3450.25
aI7219
aI663
aa(lp1747
g204
ag3
aF3453.22
aI7225
aI663
aa(lp1748
g204
ag3
aF3456.71
aI7232
aI663
aa(lp1749
g204
ag3
aF3460.93
aI7241
aI663
aa(lp1750
g204
ag3
aF3464.39
aI7248
aI663
aa(lp1751
g204
ag3
aF3466.27
aI7251
aI663
aa(lp1752
g204
ag3
aF3470.16
aI7259
aI663
aa(lp1753
g204
ag3
aF3473.13
aI7265
aI663
aa(lp1754
g204
ag3
aF3476.3
aI7271
aI663
aa(lp1755
g204
ag3
aF3480.28
aI7279
aI663
aa(lp1756
g204
ag3
aF3484.34
aI7287
aI663
aa(lp1757
g204
ag3
aF3487.3
aI7293
aI663
aa(lp1758
g204
ag3
aF3490.92
aI7300
aI663
aa(lp1759
g204
ag3
aF3494.15
aI7305
aI663
aa(lp1760
g204
ag3
aF3498.05
aI7313
aI663
aa(lp1761
g204
ag3
aF3500.32
aI7317
aI663
aa(lp1762
g204
ag3
aF3502.57
aI7321
aI663
aa(lp1763
g204
ag3
aF3504.06
aI7323
aI663
aa(lp1764
g204
ag3
aF3506.26
aI7327
aI663
aa(lp1765
g204
ag3
aF3509.73
aI7334
aI663
aa(lp1766
g204
ag3
aF3513.18
aI7341
aI663
aa(lp1767
g204
ag3
aF3517.27
aI7349
aI663
aa(lp1768
g204
ag3
aF3520.56
aI7355
aI663
aa(lp1769
g204
ag3
aF3524.13
aI7362
aI663
aa(lp1770
g204
ag3
aF3528.31
aI7371
aI663
aa(lp1771
g204
ag3
aF3530.68
aI7375
aI663
aa(lp1772
g204
ag3
aF3532.59
aI7378
aI663
aa(lp1773
g204
ag3
aF3534.84
aI7382
aI663
aa(lp1774
g204
ag3
aF3538.12
aI7388
aI663
aa(lp1775
g204
ag3
aF3541.99
aI7396
aI663
aa(lp1776
g204
ag3
aF3544.16
aI7400
aI663
aa(lp1777
g204
ag3
aF3546.37
aI7404
aI663
aa(lp1778
g204
ag3
aF3549.66
aI7410
aI663
aa(lp1779
g204
ag3
aF3552.21
aI7415
aI663
aa(lp1780
g204
ag3
aF3555.79
aI7422
aI663
aa(lp1781
g204
ag3
aF3558.43
aI7427
aI663
aa(lp1782
g204
ag3
aF3562.02
aI7434
aI663
aa(lp1783
g204
ag3
aF3565.39
aI7441
aI663
aa(lp1784
g204
ag3
aF3569.26
aI7449
aI663
aa(lp1785
g204
ag3
aF3572.77
aI7456
aI663
aa(lp1786
g204
ag3
aF3576.15
aI7463
aI663
aa(lp1787
g204
ag3
aF3579.13
aI7469
aI663
aa(lp1788
g204
ag3
aF3582.15
aI7475
aI663
aa(lp1789
g204
ag3
aF3583.94
aI7478
aI663
aa(lp1790
g204
ag3
aF3586.26
aI7482
aI663
aa(lp1791
g204
ag3
aF3588.91
aI7487
aI663
aa(lp1792
g204
ag3
aF3591.52
aI7492
aI663
aa(lp1793
g204
ag3
aF3594.53
aI7497
aI663
aa(lp1794
g204
ag3
aF3596.32
aI7500
aI663
aa(lp1795
g204
ag3
aF3599.77
aI7507
aI663
aa(lp1796
g204
ag3
aF3603.26
aI7514
aI663
aa(lp1797
g204
ag3
aF3607.14
aI7522
aI663
aa(lp1798
g204
ag3
aF3610.32
aI7528
aI663
aa(lp1799
g204
ag3
aF3614.59
aI7537
aI663
aa(lp1800
g204
ag3
aF3617.39
aI7542
aI663
aa(lp1801
g204
ag3
aF3619.73
aI7546
aI663
aa(lp1802
g204
ag3
aF3623.12
aI7553
aI663
aa(lp1803
g204
ag3
aF3625.2
aI7556
aI663
aa(lp1804
g204
ag3
aF3628.35
aI7562
aI663
aa(lp1805
g204
ag3
aF3630.7
aI7566
aI663
aa(lp1806
g204
ag3
aF3634.58
aI7574
aI663
aa(lp1807
g204
ag3
aF3637.68
aI7580
aI663
aa(lp1808
g204
ag3
aF3640.93
aI7587
aI663
aa(lp1809
g204
ag3
aF3643.04
aI7591
aI663
aa(lp1810
g204
ag3
aF3646.76
aI7599
aI663
aa(lp1811
g204
ag3
aF3649.11
aI7603
aI663
aa(lp1812
g204
ag3
aF3651.75
aI7608
aI663
aa(lp1813
g204
ag3
aF3655.85
aI7614
aI663
aa(lp1814
g204
ag3
aF3658.42
aI7619
aI663
aa(lp1815
g204
ag3
aF3661.45
aI7625
aI663
aa(lp1816
g204
ag3
aF3663.32
aI7628
aI663
aa(lp1817
g204
ag3
aF3666.28
aI7634
aI663
aa(lp1818
g204
ag3
aF3668.57
aI7638
aI663
aa(lp1819
g204
ag3
aF3670.75
aI7642
aI663
aa(lp1820
g204
ag3
aF3673.25
aI7647
aI663
aa(lp1821
g204
ag3
aF3676.22
aI7653
aI663
aa(lp1822
g204
ag3
aF3679.45
aI7660
aI663
aa(lp1823
g204
ag3
aF3682.61
aI7667
aI663
aa(lp1824
g204
ag3
aF3683.55
aI7668
aI663
aa(lp1825
g204
ag3
aF3685.74
aI7672
aI663
aa(lp1826
g204
ag3
aF3689.02
aI7679
aI663
aa(lp1827
g204
ag3
aF3691.05
aI7683
aI663
aa(lp1828
g204
ag3
aF3693.52
aI7688
aI663
aa(lp1829
g204
ag3
aF3695.56
aI7692
aI663
aa(lp1830
g204
ag3
aF3697.96
aI7697
aI663
aa(lp1831
g204
ag3
aF3700.23
aI7700
aI663
aa(lp1832
g204
ag3
aF3702.02
aI7703
aI663
aa(lp1833
g204
ag3
aF3704.58
aI7708
aI663
aa(lp1834
g204
ag3
aF3706.76
aI7712
aI663
aa(lp1835
g204
ag3
aF3710.14
aI7719
aI663
aa(lp1836
g204
ag3
aF3713.34
aI7726
aI663
aa(lp1837
g204
ag3
aF3716.34
aI7732
aI663
aa(lp1838
g204
ag3
aF3719.02
aI7737
aI663
aa(lp1839
g204
ag3
aF3721.62
aI7742
aI663
aa(lp1840
g204
ag3
aF3724.27
aI7747
aI663
aa(lp1841
g204
ag3
aF3726.05
aI7750
aI663
aa(lp1842
g204
ag3
aF3728.25
aI7754
aI663
aa(lp1843
g204
ag3
aF3731.16
aI7760
aI663
aa(lp1844
g204
ag3
aF3733.65
aI7765
aI663
aa(lp1845
g204
ag3
aF3736.38
aI7770
aI663
aa(lp1846
g204
ag3
aF3738.55
aI7774
aI663
aa(lp1847
g204
ag3
aF3742.12
aI7782
aI663
aa(lp1848
g204
ag3
aF3744.15
aI7785
aI663
aa(lp1849
g204
ag3
aF3746.97
aI7791
aI663
aa(lp1850
g204
ag3
aF3749.8
aI7797
aI663
aa(lp1851
g204
ag3
aF3752.83
aI7803
aI663
aa(lp1852
g204
ag3
aF3755.84
aI7809
aI663
aa(lp1853
g204
ag3
aF3758.37
aI7814
aI663
aa(lp1854
g204
ag3
aF3762.43
aI7823
aI663
aa(lp1855
g204
ag3
aF3765.37
aI7829
aI663
aa(lp1856
g204
ag3
aF3769.19
aI7837
aI663
aa(lp1857
g204
ag3
aF3771.34
aI7841
aI663
aa(lp1858
g204
ag3
aF3773.97
aI7846
aI663
aa(lp1859
g204
ag3
aF3777.66
aI7854
aI663
aa(lp1860
g204
ag3
aF3779.83
aI7858
aI663
aa(lp1861
g204
ag3
aF3782.4
aI7863
aI663
aa(lp1862
g204
ag3
aF3784.41
aI7867
aI663
aa(lp1863
g204
ag3
aF3787.47
aI7873
aI663
aa(lp1864
g204
ag3
aF3790.3
aI7879
aI663
aa(lp1865
g204
ag3
aF3791.96
aI7882
aI663
aa(lp1866
g204
ag3
aF3795.07
aI7888
aI663
aa(lp1867
g204
ag3
aF3797.72
aI7893
aI663
aa(lp1868
g204
ag3
aF3799.33
aI7895
aI663
aa(lp1869
g204
ag3
aF3801.35
aI7899
aI663
aa(lp1870
g204
ag3
aF3803.95
aI7904
aI663
aa(lp1871
g204
ag3
aF3806.06
aI7908
aI663
aa(lp1872
g204
ag3
aF3808.98
aI7914
aI663
aa(lp1873
g204
ag3
aF3812.01
aI7920
aI663
aa(lp1874
g204
ag3
aF3815.63
aI7928
aI663
aa(lp1875
g204
ag3
aF3818.51
aI7934
aI663
aa(lp1876
g204
ag3
aF3821.02
aI7939
aI663
aa(lp1877
g204
ag3
aF3823.17
aI7943
aI663
aa(lp1878
g204
ag3
aF3826.41
aI7950
aI663
aa(lp1879
g204
ag3
aF3828.57
aI7954
aI663
aa(lp1880
g204
ag3
aF3831.73
aI7961
aI663
aa(lp1881
g204
ag3
aF3835.36
aI7969
aI663
aa(lp1882
g204
ag3
aF3837.83
aI7974
aI663
aa(lp1883
g204
ag3
aF3839.77
aI7977
aI663
aa(lp1884
g204
ag3
aF3842.84
aI7983
aI663
aa(lp1885
g204
ag3
aF3846.13
aI7990
aI663
aa(lp1886
g204
ag3
aF3848.55
aI7995
aI663
aa(lp1887
g204
ag3
aF3851.44
aI8001
aI663
aa(lp1888
g204
ag3
aF3853.47
aI8005
aI663
aa(lp1889
g204
ag3
aF3856.29
aI8011
aI663
aa(lp1890
g204
ag3
aF3858.07
aI8014
aI663
aa(lp1891
g204
ag3
aF3860.59
aI8019
aI663
aa(lp1892
g204
ag3
aF3863.63
aI8025
aI663
aa(lp1893
g204
ag3
aF3866.09
aI8030
aI663
aa(lp1894
g204
ag3
aF3868.0
aI8033
aI663
aa(lp1895
g204
ag3
aF3869.91
aI8036
aI663
aa(lp1896
g204
ag3
aF3872.15
aI8040
aI663
aa(lp1897
g204
ag3
aF3875.31
aI8047
aI663
aa(lp1898
g204
ag3
aF3878.75
aI8054
aI663
aa(lp1899
g204
ag3
aF3880.43
aI8057
aI663
aa(lp1900
g204
ag3
aF3883.31
aI8063
aI663
aa(lp1901
g204
ag3
aF3886.47
aI8070
aI663
aa(lp1902
g204
ag3
aF3889.82
aI8077
aI663
aa(lp1903
g204
ag3
aF3893.06
aI8084
aI663
aa(lp1904
g204
ag3
aF3895.24
aI8088
aI663
aa(lp1905
g204
ag3
aF3896.78
aI8090
aI663
aa(lp1906
g204
ag3
aF3898.31
aI8092
aI663
aa(lp1907
g204
ag3
aF3900.98
aI8097
aI663
aa(lp1908
g204
ag3
aF3903.21
aI8101
aI663
aa(lp1909
g204
ag3
aF3906.19
aI8107
aI663
aa(lp1910
g204
ag3
aF3908.98
aI8113
aI663
aa(lp1911
g204
ag3
aF3911.39
aI8118
aI663
aa(lp1912
g204
ag3
aF3914.4
aI8124
aI663
aa(lp1913
g204
ag3
aF3917.38
aI8130
aI663
aa(lp1914
g204
ag3
aF3920.27
aI8136
aI663
aa(lp1915
g204
ag3
aF3921.71
aI8138
aI663
aa(lp1916
g204
ag3
aF3923.86
aI8142
aI663
aa(lp1917
g204
ag3
aF3926.35
aI8147
aI663
aa(lp1918
g204
ag3
aF3928.49
aI8151
aI663
aa(lp1919
g204
ag3
aF3932.16
aI8158
aI663
aa(lp1920
g204
ag3
aF3933.11
aI8159
aI663
aa(lp1921
g204
ag3
aF3934.81
aI8162
aI663
aa(lp1922
g204
ag3
aF3937.34
aI8167
aI663
aa(lp1923
g204
ag3
aF3940.12
aI8173
aI663
aa(lp1924
g204
ag3
aF3941.41
aI8175
aI663
aa(lp1925
g204
ag3
aF3943.46
aI8179
aI663
aa(lp1926
g204
ag3
aF3945.56
aI8183
aI663
aa(lp1927
g204
ag3
aF3947.95
aI8188
aI663
aa(lp1928
g204
ag3
aF3950.34
aI8193
aI663
aa(lp1929
g204
ag3
aF3953.09
aI8199
aI663
aa(lp1930
g204
ag3
aF3956.32
aI8206
aI663
aa(lp1931
g204
ag3
aF3958.36
aI8210
aI663
aa(lp1932
g204
ag3
aF3959.64
aI8212
aI663
aa(lp1933
g204
ag3
aF3963.07
aI8219
aI663
aa(lp1934
g204
ag3
aF3965.39
aI8223
aI663
aa(lp1935
g204
ag3
aF3967.83
aI8228
aI663
aa(lp1936
g204
ag3
aF3971.29
aI8233
aI698
aa(lp1937
g204
ag3
aF3974.27
aI8239
aI698
aa(lp1938
g204
ag3
aF3977.95
aI8247
aI698
aa(lp1939
g204
ag3
aF3981.96
aI8256
aI698
aa(lp1940
g204
ag3
aF3984.8
aI8262
aI698
aa(lp1941
g204
ag3
aF3988.77
aI8271
aI698
aa(lp1942
g204
ag3
aF3992.74
aI8280
aI698
aa(lp1943
g204
ag3
aF3996.37
aI8288
aI698
aa(lp1944
g204
ag3
aF3999.31
aI8294
aI698
aa(lp1945
g204
ag3
aF4003.01
aI8302
aI698
aa(lp1946
g204
ag3
aF4006.62
aI8310
aI698
aa(lp1947
g204
ag3
aF4009.44
aI8316
aI698
aa(lp1948
g204
ag3
aF4012.66
aI8323
aI698
aa(lp1949
g204
ag3
aF4016.52
aI8331
aI698
aa(lp1950
g204
ag3
aF4019.93
aI8338
aI698
aa(lp1951
g204
ag3
aF4024.1
aI8347
aI698
aa(lp1952
g204
ag3
aF4028.17
aI8356
aI698
aa(lp1953
g204
ag3
aF4031.63
aI8363
aI698
aa(lp1954
g204
ag3
aF4035.7
aI8372
aI698
aa(lp1955
g204
ag3
aF4038.54
aI8378
aI698
aa(lp1956
g204
ag3
aF4042.59
aI8387
aI698
aa(lp1957
g204
ag3
aF4045.68
aI8393
aI698
aa(lp1958
g204
ag3
aF4049.95
aI8402
aI698
aa(lp1959
g204
ag3
aF4053.37
aI8409
aI698
aa(lp1960
g204
ag3
aF4055.95
aI8414
aI698
aa(lp1961
g204
ag3
aF4059.53
aI8421
aI698
aa(lp1962
g204
ag3
aF4063.2
aI8429
aI698
aa(lp1963
g204
ag3
aF4066.08
aI8435
aI698
aa(lp1964
g204
ag3
aF4070.52
aI8445
aI698
aa(lp1965
g204
ag3
aF4074.31
aI8453
aI698
aa(lp1966
g204
ag3
aF4077.28
aI8459
aI698
aa(lp1967
g204
ag3
aF4080.64
aI8466
aI698
aa(lp1968
g204
ag3
aF4083.49
aI8472
aI698
aa(lp1969
g204
ag3
aF4087.31
aI8480
aI698
aa(lp1970
g204
ag3
aF4090.79
aI8487
aI698
aa(lp1971
g204
ag3
aF4094.85
aI8496
aI698
aa(lp1972
g204
ag3
aF4097.9
aI8502
aI698
aa(lp1973
g204
ag3
aF4101.04
aI8508
aI698
aa(lp1974
g204
ag3
aF4103.89
aI8514
aI698
aa(lp1975
g204
ag3
aF4107.37
aI8522
aI698
aa(lp1976
g204
ag3
aF4110.96
aI8530
aI698
aa(lp1977
g204
ag3
aF4114.74
aI8538
aI698
aa(lp1978
g204
ag3
aF4116.42
aI8541
aI698
aa(lp1979
g204
ag3
aF4119.37
aI8547
aI698
aa(lp1980
g204
ag3
aF4123.43
aI8556
aI698
aa(lp1981
g204
ag3
aF4127.12
aI8564
aI698
aa(lp1982
g204
ag3
aF4130.63
aI8571
aI698
aa(lp1983
g204
ag3
aF4135.09
aI8581
aI698
aa(lp1984
g204
ag3
aF4138.78
aI8589
aI698
aa(lp1985
g204
ag3
aF4142.48
aI8597
aI698
aa(lp1986
g204
ag3
aF4144.64
aI8601
aI698
aa(lp1987
g204
ag3
aF4147.86
aI8608
aI698
aa(lp1988
g204
ag3
aF4149.95
aI8612
aI698
aa(lp1989
g204
ag3
aF4152.79
aI8618
aI698
aa(lp1990
g204
ag3
aF4156.21
aI8626
aI698
aa(lp1991
g204
ag3
aF4158.87
aI8632
aI698
aa(lp1992
g204
ag3
aF4161.21
aI8637
aI698
aa(lp1993
g204
ag3
aF4163.92
aI8643
aI698
aa(lp1994
g204
ag3
aF4166.0
aI8647
aI698
aa(lp1995
g204
ag3
aF4168.08
aI8651
aI698
aa(lp1996
g204
ag3
aF4170.43
aI8656
aI698
aa(lp1997
g204
ag3
aF4173.39
aI8662
aI698
aa(lp1998
g204
ag3
aF4175.77
aI8667
aI698
aa(lp1999
g204
ag3
aF4177.83
aI8671
aI698
aa(lp2000
g204
ag3
aF4180.26
aI8676
aI698
aa(lp2001
g204
ag3
aF4183.03
aI8682
aI698
aa(lp2002
g204
ag3
aF4185.92
aI8688
aI698
aa(lp2003
g204
ag3
aF4188.33
aI8693
aI698
aa(lp2004
g204
ag3
aF4191.5
aI8700
aI698
aa(lp2005
g204
ag3
aF4194.62
aI8707
aI698
aa(lp2006
g204
ag3
aF4197.14
aI8712
aI698
aa(lp2007
g204
ag3
aF4199.98
aI8718
aI698
aa(lp2008
g204
ag3
aF4201.0
aI8719
aI698
aa(lp2009
g204
ag3
aF4203.17
aI8723
aI698
aa(lp2010
g204
ag3
aF4205.97
aI8729
aI698
aa(lp2011
g204
ag3
aF4208.47
aI8734
aI698
aa(lp2012
g204
ag3
aF4211.87
aI8742
aI698
aa(lp2013
g204
ag3
aF4213.95
aI8746
aI698
aa(lp2014
g204
ag3
aF4217.08
aI8753
aI698
aa(lp2015
g204
ag3
aF4219.51
aI8758
aI698
aa(lp2016
g204
ag3
aF4221.23
aI8761
aI698
aa(lp2017
g204
ag3
aF4223.94
aI8767
aI698
aa(lp2018
g204
ag3
aF4226.34
aI8772
aI698
aa(lp2019
g204
ag3
aF4229.09
aI8778
aI698
aa(lp2020
g204
ag3
aF4231.79
aI8784
aI698
aa(lp2021
g204
ag3
aF4233.71
aI8788
aI698
aa(lp2022
g204
ag3
aF4236.04
aI8793
aI698
aa(lp2023
g204
ag3
aF4238.3
aI8798
aI698
aa(lp2024
g204
ag3
aF4240.96
aI8804
aI698
aa(lp2025
g204
ag3
aF4243.23
aI8809
aI698
aa(lp2026
g204
ag3
aF4245.33
aI8813
aI698
aa(lp2027
g204
ag3
aF4247.99
aI8819
aI698
aa(lp2028
g204
ag3
aF4251.33
aI8827
aI698
aa(lp2029
g204
ag3
aF4254.42
aI8834
aI698
aa(lp2030
g204
ag3
aF4256.16
aI8837
aI698
aa(lp2031
g204
ag3
aF4258.81
aI8843
aI698
aa(lp2032
g204
ag3
aF4261.79
aI8850
aI698
aa(lp2033
g204
ag3
aF4265.66
aI8859
aI698
aa(lp2034
g204
ag3
aF4267.91
aI8864
aI698
aa(lp2035
g204
ag3
aF4269.99
aI8868
aI698
aa(lp2036
g204
ag3
aF4272.03
aI8872
aI698
aa(lp2037
g204
ag3
aF4274.03
aI8876
aI698
aa(lp2038
g204
ag3
aF4276.87
aI8882
aI698
aa(lp2039
g204
ag3
aF4279.7
aI8888
aI698
aa(lp2040
g204
ag3
aF4281.84
aI8892
aI698
aa(lp2041
g204
ag3
aF4284.78
aI8899
aI698
aa(lp2042
g204
ag3
aF4287.48
aI8905
aI698
aa(lp2043
g204
ag3
aF4289.89
aI8910
aI698
aa(lp2044
g204
ag3
aF4292.54
aI8916
aI698
aa(lp2045
g204
ag3
aF4296.18
aI8925
aI698
aa(lp2046
g204
ag3
aF4298.11
aI8929
aI698
aa(lp2047
g204
ag3
aF4300.86
aI8935
aI698
aa(lp2048
g204
ag3
aF4304.19
aI8943
aI698
aa(lp2049
g204
ag3
aF4307.47
aI8951
aI698
aa(lp2050
g204
ag3
aF4310.16
aI8957
aI698
aa(lp2051
g204
ag3
aF4312.59
aI8962
aI698
aa(lp2052
g204
ag3
aF4317.46
aI8969
aI698
aa(lp2053
g204
ag3
aF4319.84
aI8974
aI698
aa(lp2054
g204
ag3
aF4321.97
aI8978
aI698
aa(lp2055
g204
ag3
aF4324.69
aI8984
aI698
aa(lp2056
g204
ag3
aF4329.97
aI8990
aI698
aa(lp2057
g204
ag3
aF4332.06
aI8994
aI698
aa(lp2058
g204
ag3
aF4334.36
aI8999
aI698
aa(lp2059
g204
ag3
aF4337.16
aI9005
aI698
aa(lp2060
g204
ag3
aF4340.33
aI9012
aI698
aa(lp2061
g204
ag3
aF4342.71
aI9017
aI698
aa(lp2062
g204
ag3
aF4344.58
aI9020
aI698
aa(lp2063
g204
ag3
aF4347.45
aI9026
aI698
aa(lp2064
g204
ag3
aF4350.61
aI9033
aI698
aa(lp2065
g204
ag3
aF4353.72
aI9040
aI698
aa(lp2066
g204
ag3
aF4356.06
aI9045
aI698
aa(lp2067
g204
ag3
aF4358.62
aI9050
aI698
aa(lp2068
g204
ag3
aF4361.2
aI9055
aI698
aa(lp2069
g204
ag3
aF4363.63
aI9060
aI698
aa(lp2070
g204
ag3
aF4367.18
aI9068
aI698
aa(lp2071
g204
ag3
aF4368.84
aI9071
aI698
aa(lp2072
g204
ag3
aF4371.25
aI9076
aI698
aa(lp2073
g204
ag3
aF4374.7
aI9084
aI698
aa(lp2074
g204
ag3
aF4377.5
aI9090
aI698
aa(lp2075
g204
ag3
aF4379.98
aI9095
aI698
aa(lp2076
g204
ag3
aF4380.92
aI9096
aI698
aa(lp2077
g204
ag3
aF4383.44
aI9101
aI698
aa(lp2078
g204
ag3
aF4386.56
aI9108
aI698
aa(lp2079
g204
ag3
aF4389.35
aI9114
aI698
aa(lp2080
g204
ag3
aF4392.54
aI9121
aI698
aa(lp2081
g204
ag3
aF4395.63
aI9126
aI698
aa(lp2082
g204
ag3
aF4397.78
aI9130
aI698
aa(lp2083
g204
ag3
aF4400.21
aI9135
aI698
aa(lp2084
g204
ag3
aF4403.26
aI9141
aI698
aa(lp2085
g204
ag3
aF4404.95
aI9144
aI698
aa(lp2086
g204
ag3
aF4407.79
aI9150
aI698
aa(lp2087
g204
ag3
aF4410.59
aI9156
aI698
aa(lp2088
g204
ag3
aF4413.05
aI9161
aI698
aa(lp2089
g204
ag3
aF4415.82
aI9167
aI698
aa(lp2090
g204
ag3
aF4418.17
aI9172
aI698
aa(lp2091
g204
ag3
aF4421.36
aI9179
aI698
aa(lp2092
g204
ag3
aF4423.41
aI9183
aI698
aa(lp2093
g204
ag3
aF4425.84
aI9188
aI698
aa(lp2094
g204
ag3
aF4428.11
aI9192
aI698
aa(lp2095
g204
ag3
aF4430.92
aI9198
aI698
aa(lp2096
g204
ag3
aF4432.68
aI9201
aI698
aa(lp2097
g204
ag3
aF4436.1
aI9209
aI698
aa(lp2098
g204
ag3
aF4439.15
aI9215
aI698
aa(lp2099
g204
ag3
aF4441.86
aI9221
aI698
aa(lp2100
g204
ag3
aF4445.3
aI9229
aI698
aa(lp2101
g204
ag3
aF4447.3
aI9233
aI698
aa(lp2102
g204
ag3
aF4450.39
aI9239
aI698
aa(lp2103
g204
ag3
aF4452.78
aI9244
aI698
aa(lp2104
g204
ag3
aF4455.6
aI9250
aI698
aa(lp2105
g204
ag3
aF4457.76
aI9254
aI698
aa(lp2106
g204
ag3
aF4459.02
aI9256
aI698
aa(lp2107
g204
ag3
aF4461.81
aI9262
aI698
aa(lp2108
g204
ag3
aF4464.61
aI9268
aI698
aa(lp2109
g204
ag3
aF4467.64
aI9275
aI698
aa(lp2110
g204
ag3
aF4470.42
aI9281
aI698
aa(lp2111
g204
ag3
aF4473.15
aI9287
aI698
aa(lp2112
g204
ag3
aF4476.58
aI9295
aI698
aa(lp2113
g204
ag3
aF4480.1
aI9303
aI698
aa(lp2114
g204
ag3
aF4483.17
aI9310
aI698
aa(lp2115
g204
ag3
aF4485.03
aI9313
aI698
aa(lp2116
g204
ag3
aF4488.55
aI9321
aI698
aa(lp2117
g204
ag3
aF4490.85
aI9326
aI698
aa(lp2118
g204
ag3
aF4493.75
aI9332
aI698
aa(lp2119
g204
ag3
aF4497.27
aI9340
aI698
aa(lp2120
g204
ag3
aF4499.46
aI9344
aI698
aa(lp2121
g204
ag3
aF4502.68
aI9350
aI698
aa(lp2122
g204
ag3
aF4506.55
aI9359
aI698
aa(lp2123
g204
ag3
aF4510.63
aI9364
aI698
aa(lp2124
g204
ag3
aF4513.21
aI9369
aI698
aa(lp2125
g204
ag3
aF4515.66
aI9374
aI698
aa(lp2126
g204
ag3
aF4519.87
aI9382
aI698
aa(lp2127
g204
ag3
aF4523.38
aI9390
aI698
aa(lp2128
g204
ag3
aF4526.47
aI9397
aI698
aa(lp2129
g204
ag3
aF4531.37
aI9404
aI698
aa(lp2130
g204
ag3
aF4534.36
aI9411
aI698
aa(lp2131
g204
ag3
aF4537.51
aI9418
aI698
aa(lp2132
g204
ag3
aF4539.6
aI9422
aI698
aa(lp2133
g204
ag3
aF4541.62
aI9426
aI698
aa(lp2134
g204
ag3
aF4543.66
aI9430
aI698
aa(lp2135
g204
ag3
aF4544.32
aI9430
aI698
aa(lp2136
g204
ag3
aF4547.98
aI9438
aI698
aa(lp2137
g204
ag3
aF4551.4
aI9446
aI698
aa(lp2138
g204
ag3
aF4553.36
aI9450
aI698
aa(lp2139
g204
ag3
aF4555.94
aI9456
aI698
aa(lp2140
g204
ag3
aF4559.06
aI9463
aI698
aa(lp2141
g204
ag3
aF4561.79
aI9469
aI698
aa(lp2142
g204
ag3
aF4565.02
aI9477
aI698
aa(lp2143
g204
ag3
aF4567.31
aI9482
aI698
aa(lp2144
g204
ag3
aF4570.24
aI9489
aI698
aa(lp2145
g204
ag3
aF4573.59
aI9497
aI698
aa(lp2146
g204
ag3
aF4576.86
aI9505
aI698
aa(lp2147
g204
ag3
aF4578.38
aI9508
aI698
aa(lp2148
g204
ag3
aF4581.06
aI9514
aI698
aa(lp2149
g204
ag3
aF4583.4
aI9519
aI698
aa(lp2150
g204
ag3
aF4586.38
aI9526
aI698
aa(lp2151
g204
ag3
aF4588.53
aI9530
aI698
aa(lp2152
g204
ag3
aF4591.4
aI9536
aI698
aa(lp2153
g204
ag3
aF4594.5
aI9543
aI698
aa(lp2154
g204
ag3
aF4597.44
aI9550
aI698
aa(lp2155
g204
ag3
aF4600.18
aI9556
aI698
aa(lp2156
g204
ag3
aF4602.2
aI9560
aI698
aa(lp2157
g204
ag3
aF4604.06
aI9564
aI698
aa(lp2158
g204
ag3
aF4606.04
aI9568
aI698
aa(lp2159
g204
ag3
aF4608.35
aI9573
aI698
aa(lp2160
g204
ag3
aF4611.1
aI9579
aI698
aa(lp2161
g204
ag3
aF4614.17
aI9586
aI698
aa(lp2162
g204
ag3
aF4616.06
aI9590
aI698
aa(lp2163
g204
ag3
aF4618.37
aI9595
aI698
aa(lp2164
g204
ag3
aF4621.69
aI9603
aI698
aa(lp2165
g204
ag3
aF4624.22
aI9609
aI698
aa(lp2166
g204
ag3
aF4626.46
aI9614
aI698
aa(lp2167
g204
ag3
aF4628.66
aI9619
aI698
aa(lp2168
g204
ag3
aF4630.94
aI9624
aI698
aa(lp2169
g204
ag3
aF4633.59
aI9630
aI698
aa(lp2170
g204
ag3
aF4635.87
aI9635
aI698
aa(lp2171
g204
ag3
aF4638.95
aI9642
aI698
aa(lp2172
g204
ag3
aF4642.02
aI9649
aI698
aa(lp2173
g204
ag3
aF4645.09
aI9656
aI698
aa(lp2174
g204
ag3
aF4647.9
aI9662
aI698
aa(lp2175
g204
ag3
aF4650.27
aI9667
aI698
aa(lp2176
g204
ag3
aF4652.9
aI9673
aI698
aa(lp2177
g204
ag3
aF4655.14
aI9678
aI698
aa(lp2178
g204
ag3
aF4657.17
aI9682
aI698
aa(lp2179
g204
ag3
aF4659.72
aI9688
aI698
aa(lp2180
g204
ag3
aF4661.28
aI9691
aI698
aa(lp2181
g204
ag3
aF4664.22
aI9698
aI698
aa(lp2182
g204
ag3
aF4666.95
aI9704
aI698
aa(lp2183
g204
ag3
aF4669.28
aI9709
aI698
aa(lp2184
g204
ag3
aF4672.05
aI9715
aI698
aa(lp2185
g204
ag3
aF4674.94
aI9722
aI698
aa(lp2186
g204
ag3
aF4677.77
aI9728
aI698
aa(lp2187
g204
ag3
aF4680.32
aI9734
aI698
aa(lp2188
g204
ag3
aF4682.2
aI9738
aI698
aa(lp2189
g204
ag3
aF4685.32
aI9745
aI698
aa(lp2190
g204
ag3
aF4688.77
aI9753
aI698
aa(lp2191
g204
ag3
aF4690.16
aI9755
aI698
aa(lp2192
g204
ag3
aF4692.18
aI9759
aI698
aa(lp2193
g204
ag3
aF4693.19
aI9760
aI698
aa(lp2194
g204
ag3
aF4696.1
aI9767
aI698
aa(lp2195
g204
ag3
aF4698.82
aI9773
aI698
aa(lp2196
g204
ag3
aF4701.07
aI9778
aI698
aa(lp2197
g204
ag3
aF4703.63
aI9784
aI698
aa(lp2198
g204
ag3
aF4706.62
aI9791
aI698
aa(lp2199
g204
ag3
aF4708.58
aI9795
aI698
aa(lp2200
g204
ag3
aF4711.29
aI9801
aI698
aa(lp2201
g204
ag3
aF4713.24
aI9805
aI698
aa(lp2202
g204
ag3
aF4716.48
aI9813
aI698
aa(lp2203
g204
ag3
aF4718.6
aI9817
aI698
aa(lp2204
g204
ag3
aF4721.49
aI9824
aI698
aa(lp2205
g204
ag3
aF4724.23
aI9830
aI698
aa(lp2206
g204
ag3
aF4727.99
aI9839
aI698
aa(lp2207
g204
ag3
aF4730.9
aI9846
aI698
aa(lp2208
g204
ag3
aF4734.6
aI9855
aI698
aa(lp2209
g204
ag3
aF4737.3
aI9861
aI698
aa(lp2210
g204
ag3
aF4739.64
aI9866
aI698
aa(lp2211
g204
ag3
aF4742.44
aI9872
aI698
aa(lp2212
g204
ag3
aF4744.39
aI9876
aI698
aa(lp2213
g204
ag3
aF4747.14
aI9882
aI698
aa(lp2214
g204
ag3
aF4749.16
aI9886
aI698
aa(lp2215
g204
ag3
aF4750.82
aI9889
aI698
aa(lp2216
g204
ag3
aF4753.58
aI9895
aI698
aa(lp2217
g204
ag3
aF4756.84
aI9903
aI698
aa(lp2218
g204
ag3
aF4760.03
aI9910
aI698
aa(lp2219
g204
ag3
aF4762.68
aI9916
aI698
aa(lp2220
g204
ag3
aF4764.63
aI9920
aI698
aa(lp2221
g204
ag3
aF4767.99
aI9928
aI698
aa(lp2222
g204
ag3
aF4770.24
aI9933
aI698
aa(lp2223
g204
ag3
aF4772.1
aI9937
aI698
aa(lp2224
g204
ag3
aF4773.78
aI9940
aI698
aa(lp2225
g204
ag3
aF4776.12
aI9945
aI698
aa(lp2226
g204
ag3
aF4778.44
aI9950
aI698
aa(lp2227
g204
ag3
aF4780.76
aI9955
aI698
aa(lp2228
g204
ag3
aF4783.72
aI9962
aI698
aa(lp2229
g204
ag3
aF4786.89
aI9969
aI698
aa(lp2230
g204
ag3
aF4790.0
aI9976
aI698
aa(lp2231
g204
ag3
aF4791.99
aI9980
aI698
aa(lp2232
g204
ag3
aF4794.54
aI9986
aI698
aa(lp2233
g204
ag3
aF4797.88
aI9994
aI698
aa(lp2234
g204
ag3
aF4799.83
aI9998
aI698
aa(lp2235
g204
ag3
aF4801.43
aI10001
aI698
aa(lp2236
g204
ag3
aF4804.68
aI10009
aI698
aa(lp2237
g204
ag3
aF4807.23
aI10015
aI698
aa(lp2238
g204
ag3
aF4808.51
aI10017
aI698
aa(lp2239
g204
ag3
aF4811.86
aI10025
aI698
aa(lp2240
g204
ag3
aF4814.16
aI10030
aI698
aa(lp2241
g204
ag3
aF4817.51
aI10038
aI698
aa(lp2242
g204
ag3
aF4819.83
aI10043
aI698
aa(lp2243
g204
ag3
aF4822.79
aI10050
aI698
aa(lp2244
g204
ag3
aF4825.48
aI10056
aI698
aa(lp2245
g204
ag3
aF4828.46
aI10063
aI698
aa(lp2246
g204
ag3
aF4831.01
aI10069
aI698
aa(lp2247
g204
ag3
aF4834.31
aI10077
aI698
aa(lp2248
g204
ag3
aF4837.33
aI10084
aI698
aa(lp2249
g204
ag3
aF4839.76
aI10089
aI698
aa(lp2250
g204
ag3
aF4842.47
aI10095
aI698
aa(lp2251
g204
ag3
aF4844.91
aI10100
aI698
aa(lp2252
g204
ag3
aF4848.36
aI10108
aI698
aa(lp2253
g204
ag3
aF4851.15
aI10114
aI698
aa(lp2254
g204
ag3
aF4853.82
aI10120
aI698
aa(lp2255
g204
ag3
aF4856.76
aI10127
aI698
aa(lp2256
g204
ag3
aF4860.0
aI10134
aI698
aa(lp2257
g204
ag3
aF4862.66
aI10140
aI698
aa(lp2258
g204
ag3
aF4865.69
aI10147
aI698
aa(lp2259
g204
ag3
aF4867.36
aI10150
aI698
aa(lp2260
g204
ag3
aF4870.33
aI10157
aI698
aa(lp2261
g204
ag3
aF4873.41
aI10163
aI698
aa(lp2262
g204
ag3
aF4876.3
aI10170
aI698
aa(lp2263
g204
ag3
aF4879.6
aI10178
aI698
aa(lp2264
g204
ag3
aF4881.95
aI10183
aI698
aa(lp2265
g204
ag3
aF4884.92
aI10190
aI698
aa(lp2266
g204
ag3
aF4889.06
aI10199
aI698
aa(lp2267
g204
ag3
aF4891.73
aI10205
aI698
aa(lp2268
g204
ag3
aF4894.01
aI10210
aI698
aa(lp2269
g204
ag3
aF4896.41
aI10215
aI698
aa(lp2270
g204
ag3
aF4899.41
aI10222
aI698
aa(lp2271
g204
ag3
aF4902.66
aI10230
aI698
aa(lp2272
g204
ag3
aF4906.34
aI10237
aI698
aa(lp2273
g204
ag3
aF4908.88
aI10242
aI698
aa(lp2274
g204
ag3
aF4911.77
aI10249
aI698
aa(lp2275
g204
ag3
aF4914.0
aI10254
aI698
aa(lp2276
g204
ag3
aF4916.06
aI10258
aI698
aa(lp2277
g204
ag3
aF4918.05
aI10262
aI698
aa(lp2278
g204
ag3
aF4920.83
aI10267
aI698
aa(lp2279
g204
ag3
aF4923.64
aI10273
aI698
aa(lp2280
g204
ag3
aF4926.03
aI10278
aI698
aa(lp2281
g204
ag3
aF4928.81
aI10284
aI698
aa(lp2282
g204
ag3
aF4931.71
aI10291
aI698
aa(lp2283
g204
ag3
aF4934.74
aI10297
aI698
aa(lp2284
g204
ag3
aF4938.09
aI10305
aI698
aa(lp2285
g204
ag3
aF4941.07
aI10312
aI698
aa(lp2286
g204
ag3
aF4943.06
aI10316
aI698
aa(lp2287
g204
ag3
aF4945.78
aI10322
aI698
aa(lp2288
g204
ag3
aF4948.13
aI10327
aI698
aa(lp2289
g204
ag3
aF4951.13
aI10333
aI698
aa(lp2290
g204
ag3
aF4954.21
aI10340
aI698
aa(lp2291
g204
ag3
aF4956.02
aI10343
aI698
aa(lp2292
g204
ag3
aF4959.1
aI10350
aI698
aa(lp2293
g204
ag3
aF4962.57
aI10357
aI698
aa(lp2294
g204
ag3
aF4966.61
aI10365
aI698
aa(lp2295
g204
ag3
aF4969.55
aI10372
aI698
aa(lp2296
g204
ag3
aF4972.5
aI10379
aI698
aa(lp2297
g204
ag3
aF4975.13
aI10385
aI698
aa(lp2298
g204
ag3
aF4977.34
aI10390
aI698
aa(lp2299
g204
ag3
aF4980.22
aI10397
aI698
aa(lp2300
g204
ag3
aF4983.82
aI10404
aI698
aa(lp2301
g204
ag3
aF4986.12
aI10409
aI698
aa(lp2302
g204
ag3
aF4989.49
aI10417
aI698
aa(lp2303
g204
ag3
aF4992.48
aI10424
aI698
aa(lp2304
g204
ag3
aF4995.1
aI10430
aI698
aa(lp2305
g204
ag3
aF4997.9
aI10435
aI698
aa(lp2306
g204
ag3
aF5000.28
aI10440
aI698
aa(lp2307
g204
ag3
aF5002.55
aI10445
aI698
aa(lp2308
g204
ag3
aF5005.16
aI10451
aI698
aa(lp2309
g204
ag3
aF5008.91
aI10460
aI698
aa(lp2310
g204
ag3
aF5012.33
aI10467
aI698
aa(lp2311
g204
ag3
aF5014.61
aI10472
aI698
aa(lp2312
g204
ag3
aF5016.92
aI10477
aI698
aa(lp2313
g204
ag3
aF5019.83
aI10484
aI698
aa(lp2314
g204
ag3
aF5023.22
aI10492
aI698
aa(lp2315
g204
ag3
aF5026.36
aI10499
aI698
aa(lp2316
g204
ag3
aF5029.43
aI10505
aI698
aa(lp2317
g204
ag3
aF5032.88
aI10513
aI698
aa(lp2318
g204
ag3
aF5035.92
aI10520
aI698
aa(lp2319
g204
ag3
aF5039.33
aI10528
aI698
aa(lp2320
g204
ag3
aF5042.6
aI10535
aI698
aa(lp2321
g204
ag3
aF5045.72
aI10542
aI698
aa(lp2322
g204
ag3
aF5048.34
aI10547
aI698
aa(lp2323
g204
ag3
aF5051.83
aI10555
aI698
aa(lp2324
g204
ag3
aF5054.23
aI10560
aI698
aa(lp2325
g204
ag3
aF5056.89
aI10566
aI698
aa(lp2326
g204
ag3
aF5059.38
aI10570
aI698
aa(lp2327
g204
ag3
aF5061.85
aI10575
aI698
aa(lp2328
g204
ag3
aF5064.21
aI10580
aI698
aa(lp2329
g204
ag3
aF5067.37
aI10587
aI698
aa(lp2330
g204
ag3
aF5070.34
aI10594
aI698
aa(lp2331
g204
ag3
aF5074.47
aI10603
aI698
aa(lp2332
g204
ag3
aF5077.04
aI10609
aI698
aa(lp2333
g204
ag3
aF5079.65
aI10615
aI698
aa(lp2334
g204
ag3
aF5082.26
aI10621
aI698
aa(lp2335
g204
ag3
aF5084.83
aI10627
aI698
aa(lp2336
g204
ag3
aF5088.61
aI10635
aI698
aa(lp2337
g204
ag3
aF5091.01
aI10640
aI698
aa(lp2338
g204
ag3
aF5092.97
aI10644
aI698
aa(lp2339
g204
ag3
aF5095.78
aI10650
aI698
aa(lp2340
g204
ag3
aF5098.83
aI10657
aI698
aa(lp2341
g204
ag3
aF5101.42
aI10663
aI698
aa(lp2342
g204
ag3
aF5103.29
aI10667
aI698
aa(lp2343
g204
ag3
aF5106.32
aI10673
aI698
aa(lp2344
g204
ag3
aF5109.3
aI10680
aI698
aa(lp2345
g204
ag3
aF5112.3
aI10687
aI698
aa(lp2346
g204
ag3
aF5114.91
aI10693
aI698
aa(lp2347
g204
ag3
aF5118.27
aI10701
aI698
aa(lp2348
g204
ag3
aF5120.84
aI10706
aI698
aa(lp2349
g204
ag3
aF5123.58
aI10712
aI698
aa(lp2350
g204
ag3
aF5126.5
aI10719
aI698
aa(lp2351
g204
ag3
aF5128.83
aI10724
aI698
aa(lp2352
g204
ag3
aF5131.25
aI10729
aI698
aa(lp2353
g204
ag3
aF5133.89
aI10735
aI698
aa(lp2354
g204
ag3
aF5137.13
aI10740
aI698
aa(lp2355
g204
ag3
aF5140.15
aI10747
aI698
aa(lp2356
g204
ag3
aF5142.01
aI10751
aI698
aa(lp2357
g204
ag3
aF5144.3
aI10756
aI698
aa(lp2358
g204
ag3
aF5145.91
aI10759
aI698
aa(lp2359
g204
ag3
aF5148.55
aI10765
aI698
aa(lp2360
g204
ag3
aF5152.14
aI10773
aI698
aa(lp2361
g204
ag3
aF5155.4
aI10781
aI698
aa(lp2362
g204
ag3
aF5157.34
aI10785
aI698
aa(lp2363
g204
ag3
aF5159.77
aI10790
aI698
aa(lp2364
g204
ag3
aF5162.9
aI10797
aI698
aa(lp2365
g204
ag3
aF5166.33
aI10804
aI698
aa(lp2366
g204
ag3
aF5168.8
aI10809
aI698
aa(lp2367
g204
ag3
aF5171.8
aI10816
aI698
aa(lp2368
g204
ag3
aF5174.49
aI10822
aI698
aa(lp2369
g204
ag3
aF5176.51
aI10826
aI698
aa(lp2370
g204
ag3
aF5178.29
aI10829
aI698
aa(lp2371
g204
ag3
aF5181.42
aI10835
aI698
aa(lp2372
g204
ag3
aF5184.32
aI10841
aI698
aa(lp2373
g204
ag3
aF5188.32
aI10851
aI698
aa(lp2374
g204
ag3
aF5190.58
aI10856
aI698
aa(lp2375
g204
ag3
aF5193.03
aI10861
aI698
aa(lp2376
g204
ag3
aF5195.66
aI10867
aI698
aa(lp2377
g204
ag3
aF5199.24
aI10874
aI698
aa(lp2378
g204
ag3
aF5201.53
aI10879
aI698
aa(lp2379
g204
ag3
aF5204.58
aI10886
aI698
aa(lp2380
g204
ag3
aF5206.73
aI10890
aI698
aa(lp2381
g204
ag3
aF5209.41
aI10896
aI698
aa(lp2382
g204
ag3
aF5212.84
aI10903
aI698
aa(lp2383
g204
ag3
aF5214.81
aI10907
aI698
aa(lp2384
g204
ag3
aF5216.84
aI10911
aI698
aa(lp2385
g204
ag3
aF5219.79
aI10918
aI698
aa(lp2386
g204
ag3
aF5221.9
aI10922
aI698
aa(lp2387
g204
ag3
aF5224.59
aI10928
aI698
aa(lp2388
g204
ag3
aF5227.57
aI10934
aI698
aa(lp2389
g204
ag3
aF5230.84
aI10942
aI698
aa(lp2390
g204
ag3
aF5233.33
aI10947
aI698
aa(lp2391
g204
ag3
aF5236.43
aI10954
aI698
aa(lp2392
g204
ag3
aF5239.76
aI10962
aI698
aa(lp2393
g204
ag3
aF5244.42
aI10969
aI698
aa(lp2394
g204
ag3
aF5247.47
aI10976
aI698
aa(lp2395
g204
ag3
aF5249.68
aI10981
aI698
aa(lp2396
g204
ag3
aF5252.94
aI10989
aI698
aa(lp2397
g204
ag3
aF5255.52
aI10995
aI698
aa(lp2398
g204
ag3
aF5258.94
aI11002
aI698
aa(lp2399
g204
ag3
aF5261.3
aI11007
aI698
aa(lp2400
g204
ag3
aF5264.06
aI11013
aI698
aa(lp2401
g204
ag3
aF5267.17
aI11020
aI698
aa(lp2402
g204
ag3
aF5269.56
aI11025
aI698
aa(lp2403
g204
ag3
aF5271.99
aI11030
aI698
aa(lp2404
g204
ag3
aF5274.99
aI11035
aI698
aa(lp2405
g204
ag3
aF5277.67
aI11041
aI698
aa(lp2406
g204
ag3
aF5280.09
aI11046
aI698
aa(lp2407
g204
ag3
aF5281.67
aI11049
aI698
aa(lp2408
g204
ag3
aF5283.24
aI11052
aI698
aa(lp2409
g204
ag3
aF5285.26
aI11056
aI698
aa(lp2410
g204
ag3
aF5287.31
aI11060
aI698
aa(lp2411
g204
ag3
aF5288.98
aI11063
aI698
aa(lp2412
g204
ag3
aF5291.24
aI11068
aI698
aa(lp2413
g204
ag3
aF5293.97
aI11074
aI698
aa(lp2414
g204
ag3
aF5297.09
aI11081
aI698
aa(lp2415
g204
ag3
aF5299.67
aI11087
aI698
aa(lp2416
g204
ag3
aF5303.11
aI11095
aI698
aa(lp2417
g204
ag3
aF5306.78
aI11103
aI698
aa(lp2418
g204
ag3
aF5308.34
aI11106
aI698
aa(lp2419
g204
ag3
aF5310.35
aI11110
aI698
aa(lp2420
g204
ag3
aF5312.65
aI11115
aI698
aa(lp2421
g204
ag3
aF5314.94
aI11120
aI698
aa(lp2422
g204
ag3
aF5317.06
aI11124
aI698
aa(lp2423
g204
ag3
aF5320.59
aI11131
aI698
aa(lp2424
g204
ag3
aF5323.07
aI11136
aI698
aa(lp2425
g204
ag3
aF5326.34
aI11144
aI698
aa(lp2426
g204
ag3
aF5327.89
aI11147
aI698
aa(lp2427
g204
ag3
aF5330.84
aI11154
aI698
aa(lp2428
g204
ag3
aF5332.89
aI11158
aI698
aa(lp2429
g204
ag3
aF5335.24
aI11162
aI698
aa(lp2430
g204
ag3
aF5337.2
aI11166
aI698
aa(lp2431
g204
ag3
aF5341.14
aI11175
aI698
aa(lp2432
g204
ag3
aF5344.71
aI11183
aI698
aa(lp2433
g204
ag3
aF5348.72
aI11192
aI698
aa(lp2434
g204
ag3
aF5351.84
aI11198
aI698
aa(lp2435
g204
ag3
aF5354.71
aI11204
aI698
aa(lp2436
g204
ag3
aF5358.26
aI11212
aI698
aa(lp2437
g204
ag3
aF5360.64
aI11217
aI698
aa(lp2438
g204
ag3
aF5364.08
aI11225
aI698
aa(lp2439
g204
ag3
aF5366.76
aI11230
aI698
aa(lp2440
g204
ag3
aF5370.3
aI11238
aI698
aa(lp2441
g204
ag3
aF5373.0
aI11243
aI698
aa(lp2442
g204
ag3
aF5376.52
aI11251
aI698
aa(lp2443
g204
ag3
aF5379.04
aI11256
aI698
aa(lp2444
g204
ag3
aF5382.4
aI11263
aI698
aa(lp2445
g204
ag3
aF5384.92
aI11268
aI698
aa(lp2446
g204
ag3
aF5388.46
aI11276
aI698
aa(lp2447
g204
ag3
aF5390.84
aI11281
aI698
aa(lp2448
g204
ag3
aF5394.53
aI11289
aI698
aa(lp2449
g204
ag3
aF5397.82
aI11295
aI698
aa(lp2450
g204
ag3
aF5400.54
aI11301
aI698
aa(lp2451
g204
ag3
aF5403.78
aI11308
aI698
aa(lp2452
g204
ag3
aF5406.24
aI11313
aI698
aa(lp2453
g204
ag3
aF5409.04
aI11319
aI698
aa(lp2454
g204
ag3
aF5412.97
aI11327
aI698
aa(lp2455
g204
ag3
aF5415.94
aI11333
aI698
aa(lp2456
g204
ag3
aF5419.11
aI11340
aI698
aa(lp2457
g204
ag3
aF5421.91
aI11346
aI698
aa(lp2458
g204
ag3
aF5424.33
aI11351
aI698
aa(lp2459
g204
ag3
aF5427.9
aI11358
aI698
aa(lp2460
g204
ag3
aF5430.97
aI11365
aI698
aa(lp2461
g204
ag3
aF5433.61
aI11370
aI698
aa(lp2462
g204
ag3
aF5436.73
aI11377
aI698
aa(lp2463
g204
ag3
aF5440.27
aI11385
aI698
aa(lp2464
g204
ag3
aF5444.45
aI11394
aI698
aa(lp2465
g204
ag3
aF5447.68
aI11401
aI698
aa(lp2466
g204
ag3
aF5450.81
aI11408
aI698
aa(lp2467
g204
ag3
aF5454.33
aI11416
aI698
aa(lp2468
g204
ag3
aF5457.66
aI11423
aI698
aa(lp2469
g204
ag3
aF5460.06
aI11428
aI698
aa(lp2470
g204
ag3
aF5463.03
aI11435
aI698
aa(lp2471
g204
ag3
aF5466.43
aI11443
aI698
aa(lp2472
g204
ag3
aF5470.12
aI11452
aI698
aa(lp2473
g204
ag3
aF5474.5
aI11462
aI698
aa(lp2474
g204
ag3
aF5477.1
aI11468
aI698
aa(lp2475
g204
ag3
aF5478.75
aI11471
aI698
aa(lp2476
g204
ag3
aF5480.82
aI11475
aI698
aa(lp2477
g204
ag3
aF5483.96
aI11482
aI698
aa(lp2478
g204
ag3
aF5486.38
aI11487
aI698
aa(lp2479
g204
ag3
aF5489.56
aI11494
aI698
aa(lp2480
g204
ag3
aF5492.29
aI11500
aI698
aa(lp2481
g204
ag3
aF5495.28
aI11507
aI698
aa(lp2482
g204
ag3
aF5496.95
aI11510
aI698
aa(lp2483
g204
ag3
aF5499.22
aI11515
aI698
aa(lp2484
g204
ag3
aF5501.44
aI11520
aI698
aa(lp2485
g204
ag3
aF5504.8
aI11527
aI698
aa(lp2486
g204
ag3
aF5507.23
aI11532
aI698
aa(lp2487
g204
ag3
aF5509.18
aI11536
aI698
aa(lp2488
g204
ag3
aF5511.96
aI11542
aI698
aa(lp2489
g204
ag3
aF5515.04
aI11549
aI698
aa(lp2490
g204
ag3
aF5517.29
aI11554
aI698
aa(lp2491
g204
ag3
aF5518.56
aI11556
aI698
aa(lp2492
g204
ag3
aF5520.65
aI11560
aI698
aa(lp2493
g204
ag3
aF5523.75
aI11567
aI698
aa(lp2494
g204
ag3
aF5526.76
aI11574
aI698
aa(lp2495
g204
ag3
aF5529.69
aI11581
aI698
aa(lp2496
g204
ag3
aF5532.58
aI11587
aI698
aa(lp2497
g204
ag3
aF5536.51
aI11597
aI698
aa(lp2498
g204
ag3
aF5538.81
aI11602
aI698
aa(lp2499
g204
ag3
aF5540.87
aI11606
aI698
aa(lp2500
g204
ag3
aF5543.57
aI11612
aI698
aa(lp2501
g204
ag3
aF5547.41
aI11621
aI698
aa(lp2502
g204
ag3
aF5550.2
aI11627
aI698
aa(lp2503
g204
ag3
aF5553.67
aI11635
aI698
aa(lp2504
g204
ag3
aF5555.63
aI11639
aI698
aa(lp2505
g204
ag3
aF5557.93
aI11644
aI698
aa(lp2506
g204
ag3
aF5561.2
aI11652
aI698
aa(lp2507
g204
ag3
aF5563.89
aI11658
aI698
aa(lp2508
g204
ag3
aF5566.52
aI11664
aI698
aa(lp2509
g204
ag3
aF5568.71
aI11668
aI698
aa(lp2510
g204
ag3
aF5571.01
aI11673
aI698
aa(lp2511
g204
ag3
aF5573.57
aI11679
aI698
aa(lp2512
g204
ag3
aF5577.07
aI11687
aI698
aa(lp2513
g204
ag3
aF5580.75
aI11696
aI698
aa(lp2514
g204
ag3
aF5583.45
aI11702
aI698
aa(lp2515
g204
ag3
aF5586.89
aI11710
aI698
aa(lp2516
g204
ag3
aF5590.38
aI11718
aI698
aa(lp2517
g204
ag3
aF5592.5
aI11722
aI698
aa(lp2518
g204
ag3
aF5595.58
aI11729
aI698
aa(lp2519
g204
ag3
aF5598.88
aI11737
aI698
aa(lp2520
g204
ag3
aF5602.26
aI11745
aI698
aa(lp2521
g204
ag3
aF5604.86
aI11751
aI698
aa(lp2522
g204
ag3
aF5608.48
aI11760
aI698
aa(lp2523
g204
ag3
aF5611.38
aI11766
aI698
aa(lp2524
g204
ag3
aF5614.46
aI11773
aI698
aa(lp2525
g204
ag3
aF5617.29
aI11779
aI698
aa(lp2526
g204
ag3
aF5621.34
aI11789
aI698
aa(lp2527
g204
ag3
aF5623.92
aI11795
aI698
aa(lp2528
g204
ag3
aF5626.33
aI11800
aI698
aa(lp2529
g204
ag3
aF5628.72
aI11805
aI698
aa(lp2530
g204
ag3
aF5631.85
aI11812
aI698
aa(lp2531
g204
ag3
aF5635.03
aI11819
aI698
aa(lp2532
g204
ag3
aF5637.39
aI11824
aI698
aa(lp2533
g204
ag3
aF5639.7
aI11829
aI698
aa(lp2534
g204
ag3
aF5642.61
aI11836
aI698
aa(lp2535
g204
ag3
aF5645.44
aI11842
aI698
aa(lp2536
g204
ag3
aF5648.08
aI11848
aI698
aa(lp2537
g204
ag3
aF5651.15
aI11855
aI698
aa(lp2538
g204
ag3
aF5654.01
aI11861
aI698
aa(lp2539
g204
ag3
aF5657.3
aI11869
aI698
aa(lp2540
g204
ag3
aF5659.91
aI11875
aI698
aa(lp2541
g204
ag3
aF5662.34
aI11880
aI698
aa(lp2542
g204
ag3
aF5665.64
aI11888
aI698
aa(lp2543
g204
ag3
aF5668.94
aI11896
aI698
aa(lp2544
g204
ag3
aF5671.65
aI11902
aI698
aa(lp2545
g204
ag3
aF5674.92
aI11910
aI698
aa(lp2546
g204
ag3
aF5676.81
aI11914
aI698
aa(lp2547
g204
ag3
aF5680.12
aI11922
aI698
aa(lp2548
g204
ag3
aF5682.47
aI11927
aI698
aa(lp2549
g204
ag3
aF5684.72
aI11932
aI698
aa(lp2550
g204
ag3
aF5687.87
aI11939
aI698
aa(lp2551
g204
ag3
aF5691.21
aI11947
aI698
aa(lp2552
g204
ag3
aF5693.87
aI11953
aI698
aa(lp2553
g204
ag3
aF5696.28
aI11958
aI698
aa(lp2554
g204
ag3
aF5698.95
aI11964
aI698
aa(lp2555
g204
ag3
aF5702.62
aI11972
aI698
aa(lp2556
g204
ag3
aF5705.88
aI11980
aI698
aa(lp2557
g204
ag3
aF5708.16
aI11985
aI698
aa(lp2558
g204
ag3
aF5711.54
aI11993
aI698
aa(lp2559
g204
ag3
aF5713.84
aI11998
aI698
aa(lp2560
g204
ag3
aF5717.26
aI12006
aI698
aa(lp2561
g204
ag3
aF5720.66
aI12014
aI698
aa(lp2562
g204
ag3
aF5723.61
aI12021
aI698
aa(lp2563
g204
ag3
aF5726.92
aI12029
aI698
aa(lp2564
g204
ag3
aF5730.58
aI12038
aI698
aa(lp2565
g204
ag3
aF5732.59
aI12042
aI698
aa(lp2566
g204
ag3
aF5735.29
aI12048
aI698
aa(lp2567
g204
ag3
aF5738.54
aI12056
aI698
aa(lp2568
g204
ag3
aF5741.48
aI12063
aI698
aa(lp2569
g204
ag3
aF5744.8
aI12071
aI698
aa(lp2570
g204
ag3
aF5747.24
aI12076
aI698
aa(lp2571
g204
ag3
aF5750.02
aI12082
aI698
aa(lp2572
g204
ag3
aF5752.91
aI12089
aI698
aa(lp2573
g204
ag3
aF5755.27
aI12094
aI698
aa(lp2574
g204
ag3
aF5758.22
aI12101
aI698
aa(lp2575
g204
ag3
aF5760.94
aI12107
aI698
aa(lp2576
g204
ag3
aF5763.88
aI12114
aI698
aa(lp2577
g204
ag3
aF5765.45
aI12117
aI698
aa(lp2578
g204
ag3
aF5768.52
aI12124
aI698
aa(lp2579
g204
ag3
aF5771.75
aI12132
aI698
aa(lp2580
g204
ag3
aF5774.47
aI12138
aI698
aa(lp2581
g204
ag3
aF5777.76
aI12146
aI698
aa(lp2582
g204
ag3
aF5779.74
aI12150
aI698
aa(lp2583
g204
ag3
aF5782.49
aI12156
aI698
aa(lp2584
g204
ag3
aF5784.13
aI12159
aI698
aa(lp2585
g204
ag3
aF5787.78
aI12168
aI698
aa(lp2586
g204
ag3
aF5789.39
aI12171
aI698
aa(lp2587
g204
ag3
aF5791.5
aI12175
aI698
aa(lp2588
g204
ag3
aF5793.88
aI12180
aI698
aa(lp2589
g204
ag3
aF5796.09
aI12185
aI698
aa(lp2590
g204
ag3
aF5800.16
aI12195
aI698
aa(lp2591
g204
ag3
aF5803.19
aI12202
aI698
aa(lp2592
g204
ag3
aF5806.24
aI12209
aI698
aa(lp2593
g204
ag3
aF5809.43
aI12216
aI698
aa(lp2594
g204
ag3
aF5812.82
aI12224
aI698
aa(lp2595
g204
ag3
aF5816.17
aI12232
aI698
aa(lp2596
g204
ag3
aF5819.45
aI12240
aI698
aa(lp2597
g204
ag3
aF5822.09
aI12246
aI698
aa(lp2598
g204
ag3
aF5825.33
aI12254
aI698
aa(lp2599
g204
ag3
aF5828.0
aI12260
aI698
aa(lp2600
g204
ag3
aF5830.43
aI12265
aI698
aa(lp2601
g204
ag3
aF5833.42
aI12272
aI698
aa(lp2602
g204
ag3
aF5835.27
aI12275
aI698
aa(lp2603
g204
ag3
aF5838.26
aI12282
aI698
aa(lp2604
g204
ag3
aF5840.68
aI12287
aI698
aa(lp2605
g204
ag3
aF5843.82
aI12294
aI698
aa(lp2606
g204
ag3
aF5846.87
aI12301
aI698
aa(lp2607
g204
ag3
aF5849.95
aI12308
aI698
aa(lp2608
g204
ag3
aF5852.88
aI12315
aI698
aa(lp2609
g204
ag3
aF5856.02
aI12322
aI698
aa(lp2610
g204
ag3
aF5858.74
aI12328
aI698
aa(lp2611
g204
ag3
aF5862.5
aI12337
aI698
aa(lp2612
g204
ag3
aF5865.55
aI12344
aI698
aa(lp2613
g204
ag3
aF5869.05
aI12352
aI698
aa(lp2614
g204
ag3
aF5871.77
aI12358
aI698
aa(lp2615
g204
ag3
aF5874.16
aI12363
aI698
aa(lp2616
g204
ag3
aF5877.28
aI12370
aI698
aa(lp2617
g204
ag3
aF5881.07
aI12378
aI698
aa(lp2618
g204
ag3
aF5884.12
aI12385
aI698
aa(lp2619
g204
ag3
aF5887.08
aI12392
aI698
aa(lp2620
g204
ag3
aF5890.21
aI12399
aI698
aa(lp2621
g204
ag3
aF5892.96
aI12405
aI698
aa(lp2622
g204
ag3
aF5896.14
aI12412
aI698
aa(lp2623
g204
ag3
aF5899.28
aI12419
aI698
aa(lp2624
g204
ag3
aF5901.9
aI12425
aI698
aa(lp2625
g204
ag3
aF5905.72
aI12434
aI698
aa(lp2626
g204
ag3
aF5908.8
aI12441
aI698
aa(lp2627
g204
ag3
aF5911.95
aI12448
aI698
aa(lp2628
g204
ag3
aF5914.71
aI12454
aI698
aa(lp2629
g204
ag3
aF5918.06
aI12461
aI698
aa(lp2630
g204
ag3
aF5920.8
aI12467
aI698
aa(lp2631
g204
ag3
aF5924.03
aI12474
aI698
aa(lp2632
g204
ag3
aF5927.85
aI12482
aI698
aa(lp2633
g204
ag3
aF5930.18
aI12487
aI698
aa(lp2634
g204
ag3
aF5933.49
aI12494
aI698
aa(lp2635
g204
ag3
aF5937.31
aI12503
aI698
aa(lp2636
g204
ag3
aF5940.85
aI12511
aI698
aa(lp2637
g204
ag3
aF5944.19
aI12519
aI698
aa(lp2638
g204
ag3
aF5947.61
aI12527
aI698
aa(lp2639
g204
ag3
aF5950.57
aI12534
aI698
aa(lp2640
g204
ag3
aF5952.01
aI12536
aI698
aa(lp2641
g204
ag3
aF5954.0
aI12540
aI698
aa(lp2642
g204
ag3
aF5956.34
aI12545
aI698
aa(lp2643
g204
ag3
aF5959.2
aI12551
aI698
aa(lp2644
g204
ag3
aF5962.37
aI12558
aI698
aa(lp2645
g204
ag3
aF5965.44
aI12565
aI698
aa(lp2646
g204
ag3
aF5968.4
aI12572
aI698
aa(lp2647
g204
ag3
aF5972.08
aI12580
aI698
aa(lp2648
g204
ag3
aF5974.92
aI12586
aI698
aa(lp2649
g204
ag3
aF5978.36
aI12594
aI698
aa(lp2650
g204
ag3
aF5981.46
aI12601
aI698
aa(lp2651
g204
ag3
aF5984.08
aI12607
aI698
aa(lp2652
g204
ag3
aF5987.41
aI12614
aI698
aa(lp2653
g204
ag3
aF5990.59
aI12621
aI698
aa(lp2654
g204
ag3
aF5993.91
aI12629
aI698
aa(lp2655
g204
ag3
aF5996.55
aI12635
aI698
aa(lp2656
g204
ag3
aF5999.98
aI12643
aI698
aa(lp2657
g204
ag3
aF6002.96
aI12650
aI698
aa(lp2658
g204
ag3
aF6006.13
aI12657
aI698
aa(lp2659
g204
ag3
aF6009.2
aI12664
aI698
aa(lp2660
g204
ag3
aF6013.02
aI12673
aI698
aa(lp2661
g204
ag3
aF6016.35
aI12681
aI698
aa(lp2662
g204
ag3
aF6019.67
aI12688
aI698
aa(lp2663
g204
ag3
aF6022.36
aI12694
aI698
aa(lp2664
g204
ag3
aF6023.78
aI12696
aI698
aa(lp2665
g204
ag3
aF6026.23
aI12701
aI698
aa(lp2666
g204
ag3
aF6029.63
aI12709
aI698
aa(lp2667
g204
ag3
aF6032.35
aI12715
aI698
aa(lp2668
g204
ag3
aF6036.05
aI12723
aI698
aa(lp2669
g204
ag3
aF6039.23
aI12730
aI698
aa(lp2670
g204
ag3
aF6042.55
aI12737
aI698
aa(lp2671
g204
ag3
aF6044.94
aI12742
aI698
aa(lp2672
g204
ag3
aF6047.85
aI12748
aI698
aa(lp2673
g204
ag3
aF6051.38
aI12756
aI698
aa(lp2674
g204
ag3
aF6054.33
aI12763
aI698
aa(lp2675
g204
ag3
aF6057.13
aI12769
aI698
aa(lp2676
g204
ag3
aF6059.66
aI12774
aI698
aa(lp2677
g204
ag3
aF6063.24
aI12782
aI698
aa(lp2678
g204
ag3
aF6066.82
aI12790
aI698
aa(lp2679
g204
ag3
aF6068.85
aI12794
aI698
aa(lp2680
g204
ag3
aF6071.54
aI12800
aI698
aa(lp2681
g204
ag3
aF6074.37
aI12806
aI698
aa(lp2682
g204
ag3
aF6076.8
aI12811
aI698
aa(lp2683
g204
ag3
aF6079.4
aI12817
aI698
aa(lp2684
g204
ag3
aF6082.47
aI12823
aI698
aa(lp2685
g204
ag3
aF6084.76
aI12828
aI698
aa(lp2686
g204
ag3
aF6088.63
aI12837
aI698
aa(lp2687
g204
ag3
aF6092.27
aI12841
aI894
aa(lp2688
g204
ag3
aF6095.0
aI12841
aI894
aa(lp2689
g204
ag3
aF6097.46
aI12841
aI894
aa(lp2690
g204
ag3
aF6099.89
aI12841
aI894
aa(lp2691
g204
ag3
aF6102.59
aI12841
aI894
aa(lp2692
g204
ag3
aF6105.54
aI12841
aI894
aa(lp2693
g204
ag3
aF6107.79
aI12841
aI894
aa(lp2694
g204
ag3
aF6109.89
aI12841
aI894
aa(lp2695
g204
ag3
aF6112.38
aI12841
aI894
aa(lp2696
g204
ag3
aF6115.12
aI12841
aI894
aa(lp2697
g204
ag3
aF6117.82
aI12841
aI894
aa(lp2698
g204
ag3
aF6120.1
aI12841
aI894
aa(lp2699
g204
ag3
aF6122.32
aI12841
aI894
aa(lp2700
g204
ag3
aF6124.65
aI12841
aI894
aa(lp2701
g204
ag3
aF6127.71
aI12841
aI894
aa(lp2702
g204
ag3
aF6129.37
aI12841
aI894
aa(lp2703
g204
ag3
aF6131.5
aI12841
aI894
aa(lp2704
g204
ag3
aF6133.74
aI12841
aI894
aa(lp2705
g204
ag3
aF6136.55
aI12841
aI894
aa(lp2706
g204
ag3
aF6138.96
aI12841
aI894
aa(lp2707
g204
ag3
aF6141.21
aI12841
aI894
aa(lp2708
g204
ag3
aF6143.67
aI12841
aI894
aa(lp2709
g204
ag3
aF6146.25
aI12841
aI894
aa(lp2710
g204
ag3
aF6148.2
aI12841
aI894
aa(lp2711
g204
ag3
aF6150.57
aI12841
aI894
aa(lp2712
g204
ag3
aF6152.91
aI12841
aI894
aa(lp2713
g204
ag3
aF6155.91
aI12841
aI894
aa(lp2714
g204
ag3
aF6158.55
aI12841
aI894
aa(lp2715
g204
ag3
aF6161.29
aI12841
aI894
aa(lp2716
g204
ag3
aF6163.73
aI12841
aI894
aa(lp2717
g204
ag3
aF6165.87
aI12841
aI894
aa(lp2718
g204
ag3
aF6168.67
aI12841
aI894
aa(lp2719
g204
ag3
aF6170.76
aI12841
aI894
aa(lp2720
g204
ag3
aF6173.41
aI12841
aI894
aa(lp2721
g204
ag3
aF6175.81
aI12841
aI894
aa(lp2722
g204
ag3
aF6178.52
aI12841
aI894
aa(lp2723
g204
ag3
aF6181.07
aI12841
aI894
aa(lp2724
g204
ag3
aF6184.04
aI12841
aI894
aa(lp2725
g204
ag3
aF6186.41
aI12841
aI894
aa(lp2726
g204
ag3
aF6188.98
aI12841
aI894
aa(lp2727
g204
ag3
aF6191.92
aI12841
aI894
aa(lp2728
g204
ag3
aF6194.62
aI12841
aI894
aa(lp2729
g204
ag3
aF6197.53
aI12841
aI894
aa(lp2730
g204
ag3
aF6199.35
aI12841
aI894
aa(lp2731
g204
ag3
aF6201.5
aI12841
aI894
aa(lp2732
g204
ag3
aF6203.52
aI12841
aI894
aa(lp2733
g204
ag3
aF6206.68
aI12841
aI894
aa(lp2734
g204
ag3
aF6208.42
aI12841
aI894
aa(lp2735
g204
ag3
aF6210.79
aI12841
aI894
aa(lp2736
g204
ag3
aF6213.23
aI12841
aI894
aa(lp2737
g204
ag3
aF6215.78
aI12841
aI894
aa(lp2738
g204
ag3
aF6218.35
aI12841
aI894
aa(lp2739
g204
ag3
aF6221.09
aI12841
aI894
aa(lp2740
g204
ag3
aF6223.22
aI12841
aI894
aa(lp2741
g204
ag3
aF6226.03
aI12841
aI894
aa(lp2742
g204
ag3
aF6228.87
aI12841
aI894
aa(lp2743
g204
ag3
aF6231.68
aI12841
aI894
aa(lp2744
g204
ag3
aF6234.15
aI12841
aI894
aa(lp2745
g204
ag3
aF6236.6
aI12841
aI894
aa(lp2746
g204
ag3
aF6239.63
aI12841
aI894
aa(lp2747
g204
ag3
aF6241.83
aI12841
aI894
aa(lp2748
g204
ag3
aF6244.19
aI12841
aI894
aa(lp2749
g204
ag3
aF6246.99
aI12841
aI894
aa(lp2750
g204
ag3
aF6249.52
aI12841
aI894
aa(lp2751
g204
ag3
aF6252.07
aI12841
aI894
aa(lp2752
g204
ag3
aF6254.87
aI12841
aI894
aa(lp2753
g204
ag3
aF6258.25
aI12841
aI894
aa(lp2754
g204
ag3
aF6260.77
aI12841
aI894
aa(lp2755
g204
ag3
aF6263.83
aI12841
aI894
aa(lp2756
g204
ag3
aF6266.75
aI12841
aI894
aa(lp2757
g204
ag3
aF6269.66
aI12841
aI894
aa(lp2758
g204
ag3
aF6272.25
aI12841
aI894
aa(lp2759
g204
ag3
aF6275.29
aI12841
aI894
aa(lp2760
g204
ag3
aF6278.0
aI12841
aI894
aa(lp2761
g204
ag3
aF6280.42
aI12841
aI894
aa(lp2762
g204
ag3
aF6282.73
aI12841
aI894
aa(lp2763
g204
ag3
aF6284.5
aI12841
aI894
aa(lp2764
g204
ag3
aF6287.53
aI12841
aI894
aa(lp2765
g204
ag3
aF6290.11
aI12841
aI894
aa(lp2766
g204
ag3
aF6292.89
aI12841
aI894
aa(lp2767
g204
ag3
aF6295.66
aI12841
aI894
aa(lp2768
g204
ag3
aF6298.47
aI12841
aI894
aa(lp2769
g204
ag3
aF6301.36
aI12841
aI894
aa(lp2770
g204
ag3
aF6303.72
aI12841
aI894
aa(lp2771
g204
ag3
aF6305.22
aI12841
aI894
aa(lp2772
g204
ag3
aF6307.85
aI12841
aI894
aa(lp2773
g204
ag3
aF6311.02
aI12841
aI894
aa(lp2774
g204
ag3
aF6312.72
aI12841
aI894
aa(lp2775
g204
ag3
aF6315.51
aI12841
aI894
aa(lp2776
g204
ag3
aF6318.3
aI12841
aI894
aa(lp2777
g204
ag3
aF6321.01
aI12841
aI894
aa(lp2778
g204
ag3
aF6323.31
aI12841
aI894
aa(lp2779
g204
ag3
aF6325.14
aI12841
aI894
aa(lp2780
g204
ag3
aF6327.92
aI12841
aI894
aa(lp2781
g204
ag3
aF6330.99
aI12841
aI894
aa(lp2782
g204
ag3
aF6333.32
aI12841
aI894
aa(lp2783
g204
ag3
aF6335.39
aI12841
aI894
aa(lp2784
g204
ag3
aF6337.62
aI12841
aI894
aa(lp2785
g204
ag3
aF6340.92
aI12841
aI894
aa(lp2786
g204
ag3
aF6343.0
aI12841
aI894
aa(lp2787
g204
ag3
aF6345.32
aI12841
aI894
aa(lp2788
g204
ag3
aF6347.91
aI12841
aI894
aa(lp2789
g204
ag3
aF6350.73
aI12841
aI894
aa(lp2790
g204
ag3
aF6353.59
aI12841
aI894
aa(lp2791
g204
ag3
aF6356.36
aI12841
aI894
aa(lp2792
g204
ag3
aF6358.19
aI12841
aI894
aa(lp2793
g204
ag3
aF6360.87
aI12841
aI894
aa(lp2794
g204
ag3
aF6363.91
aI12841
aI894
aa(lp2795
g204
ag3
aF6366.33
aI12841
aI894
aa(lp2796
g204
ag3
aF6369.02
aI12841
aI894
aa(lp2797
g204
ag3
aF6372.26
aI12841
aI894
aa(lp2798
g204
ag3
aF6375.03
aI12841
aI894
aa(lp2799
g204
ag3
aF6377.54
aI12841
aI894
aa(lp2800
g204
ag3
aF6380.71
aI12841
aI894
aa(lp2801
g204
ag3
aF6383.75
aI12841
aI894
aa(lp2802
g204
ag3
aF6386.54
aI12841
aI894
aa(lp2803
g204
ag3
aF6388.85
aI12841
aI894
aa(lp2804
g204
ag3
aF6391.43
aI12841
aI894
aa(lp2805
g204
ag3
aF6393.97
aI12841
aI894
aa(lp2806
g204
ag3
aF6396.38
aI12841
aI894
aa(lp2807
g204
ag3
aF6398.34
aI12841
aI894
aa(lp2808
g204
ag3
aF6401.73
aI12841
aI894
aa(lp2809
g204
ag3
aF6405.0
aI12841
aI894
aa(lp2810
g204
ag3
aF6407.42
aI12841
aI894
aa(lp2811
g204
ag3
aF6409.63
aI12841
aI894
aa(lp2812
g204
ag3
aF6411.47
aI12841
aI894
aa(lp2813
g204
ag3
aF6414.28
aI12841
aI894
aa(lp2814
g204
ag3
aF6416.55
aI12841
aI894
aa(lp2815
g204
ag3
aF6419.46
aI12841
aI894
aa(lp2816
g204
ag3
aF6421.47
aI12841
aI894
aa(lp2817
g204
ag3
aF6424.96
aI12841
aI894
aa(lp2818
g204
ag3
aF6427.85
aI12841
aI894
aa(lp2819
g204
ag3
aF6431.42
aI12841
aI894
aa(lp2820
g204
ag3
aF6433.79
aI12841
aI894
aa(lp2821
g204
ag3
aF6435.68
aI12841
aI894
aa(lp2822
g204
ag3
aF6438.11
aI12841
aI894
aa(lp2823
g204
ag3
aF6440.81
aI12841
aI894
aa(lp2824
g204
ag3
aF6443.16
aI12841
aI894
aa(lp2825
g204
ag3
aF6445.26
aI12841
aI894
aa(lp2826
g204
ag3
aF6448.16
aI12841
aI894
aa(lp2827
g204
ag3
aF6450.56
aI12841
aI894
aa(lp2828
g204
ag3
aF6452.89
aI12841
aI894
aa(lp2829
g204
ag3
aF6455.76
aI12841
aI894
aa(lp2830
g204
ag3
aF6458.66
aI12841
aI894
aa(lp2831
g204
ag3
aF6460.79
aI12841
aI894
aa(lp2832
g204
ag3
aF6463.91
aI12841
aI894
aa(lp2833
g204
ag3
aF6466.32
aI12841
aI894
aa(lp2834
g204
ag3
aF6469.0
aI12841
aI894
aa(lp2835
g204
ag3
aF6471.6
aI12841
aI894
aa(lp2836
g204
ag3
aF6474.45
aI12841
aI894
aa(lp2837
g204
ag3
aF6477.21
aI12841
aI894
aa(lp2838
g204
ag3
aF6480.2
aI12841
aI894
aa(lp2839
g204
ag3
aF6483.21
aI12841
aI894
aa(lp2840
g204
ag3
aF6485.98
aI12841
aI894
aa(lp2841
g204
ag3
aF6488.28
aI12841
aI894
aa(lp2842
g204
ag3
aF6490.37
aI12841
aI894
aa(lp2843
g204
ag3
aF6492.67
aI12841
aI894
aa(lp2844
g204
ag3
aF6495.19
aI12841
aI894
aa(lp2845
g204
ag3
aF6498.13
aI12841
aI894
aa(lp2846
g204
ag3
aF6500.6
aI12841
aI894
aa(lp2847
g204
ag3
aF6503.18
aI12841
aI894
aa(lp2848
g204
ag3
aF6505.38
aI12841
aI894
aa(lp2849
g204
ag3
aF6508.14
aI12841
aI894
aa(lp2850
g204
ag3
aF6510.67
aI12841
aI894
aa(lp2851
g204
ag3
aF6513.47
aI12841
aI894
aa(lp2852
g204
ag3
aF6515.35
aI12841
aI894
aa(lp2853
g204
ag3
aF6518.21
aI12841
aI894
aa(lp2854
g204
ag3
aF6520.53
aI12841
aI894
aa(lp2855
g204
ag3
aF6523.16
aI12841
aI894
aa(lp2856
g204
ag3
aF6525.25
aI12841
aI894
aa(lp2857
g204
ag3
aF6527.55
aI12841
aI894
aa(lp2858
g204
ag3
aF6530.3
aI12841
aI894
aa(lp2859
g204
ag3
aF6533.1
aI12841
aI894
aa(lp2860
g204
ag3
aF6535.91
aI12841
aI894
aa(lp2861
g204
ag3
aF6538.86
aI12841
aI894
aa(lp2862
g204
ag3
aF6541.14
aI12841
aI894
aa(lp2863
g204
ag3
aF6543.62
aI12841
aI894
aa(lp2864
g204
ag3
aF6546.48
aI12841
aI894
aa(lp2865
g204
ag3
aF6548.49
aI12841
aI894
aa(lp2866
g204
ag3
aF6551.55
aI12841
aI894
aa(lp2867
g204
ag3
aF6554.27
aI12841
aI894
aa(lp2868
g204
ag3
aF6556.85
aI12841
aI894
aa(lp2869
g204
ag3
aF6559.54
aI12841
aI894
aa(lp2870
g204
ag3
aF6561.77
aI12841
aI894
aa(lp2871
g204
ag3
aF6563.45
aI12841
aI894
aa(lp2872
g204
ag3
aF6565.74
aI12841
aI894
aa(lp2873
g204
ag3
aF6568.53
aI12841
aI894
aa(lp2874
g204
ag3
aF6570.91
aI12841
aI894
aa(lp2875
g204
ag3
aF6573.66
aI12841
aI894
aa(lp2876
g204
ag3
aF6576.31
aI12841
aI894
aa(lp2877
g204
ag3
aF6578.91
aI12841
aI894
aa(lp2878
g204
ag3
aF6581.34
aI12841
aI894
aa(lp2879
g204
ag3
aF6584.12
aI12841
aI894
aa(lp2880
g204
ag3
aF6586.53
aI12841
aI894
aa(lp2881
g204
ag3
aF6588.49
aI12841
aI894
aa(lp2882
g204
ag3
aF6590.82
aI12841
aI894
aa(lp2883
g204
ag3
aF6593.81
aI12841
aI894
aa(lp2884
g204
ag3
aF6596.2
aI12841
aI894
aa(lp2885
g204
ag3
aF6599.13
aI12841
aI894
aa(lp2886
g204
ag3
aF6601.5
aI12841
aI894
aa(lp2887
g204
ag3
aF6603.49
aI12841
aI894
aa(lp2888
g204
ag3
aF6605.52
aI12841
aI894
aa(lp2889
g204
ag3
aF6607.88
aI12841
aI894
aa(lp2890
g204
ag3
aF6609.84
aI12841
aI894
aa(lp2891
g204
ag3
aF6612.41
aI12841
aI894
aa(lp2892
g204
ag3
aF6615.03
aI12841
aI894
aa(lp2893
g204
ag3
aF6616.56
aI12841
aI894
aa(lp2894
g204
ag3
aF6618.4
aI12841
aI894
aa(lp2895
g204
ag3
aF6620.68
aI12841
aI894
aa(lp2896
g204
ag3
aF6623.61
aI12841
aI894
aa(lp2897
g204
ag3
aF6625.95
aI12841
aI894
aa(lp2898
g204
ag3
aF6628.61
aI12841
aI894
aa(lp2899
g204
ag3
aF6631.46
aI12841
aI894
aa(lp2900
g204
ag3
aF6634.39
aI12841
aI894
aa(lp2901
g204
ag3
aF6637.24
aI12841
aI894
aa(lp2902
g204
ag3
aF6639.07
aI12841
aI894
aa(lp2903
g204
ag3
aF6641.38
aI12844
aI894
aa(lp2904
g204
ag3
aF6644.51
aI12850
aI894
aa(lp2905
g204
ag3
aF6646.47
aI12852
aI894
aa(lp2906
g204
ag3
aF6649.27
aI12856
aI894
aa(lp2907
g204
ag3
aF6652.06
aI12860
aI894
aa(lp2908
g204
ag3
aF6654.74
aI12864
aI894
aa(lp2909
g204
ag3
aF6657.56
aI12869
aI894
aa(lp2910
g204
ag3
aF6659.83
aI12873
aI894
aa(lp2911
g204
ag3
aF6662.17
aI12876
aI894
aa(lp2912
g204
ag3
aF6664.25
aI12877
aI894
aa(lp2913
g204
ag3
aF6665.73
aI12879
aI894
aa(lp2914
g204
ag3
aF6667.91
aI12882
aI894
aa(lp2915
g204
ag3
aF6669.67
aI12884
aI894
aa(lp2916
g204
ag3
aF6673.42
aI12891
aI894
aa(lp2917
g204
ag3
aF6675.39
aI12894
aI894
aa(lp2918
g204
ag3
aF6677.25
aI12897
aI894
aa(lp2919
g204
ag3
aF6679.33
aI12899
aI894
aa(lp2920
g204
ag3
aF6681.83
aI12901
aI894
aa(lp2921
g204
ag3
aF6684.19
aI12903
aI894
aa(lp2922
g204
ag3
aF6686.66
aI12907
aI894
aa(lp2923
g204
ag3
aF6689.45
aI12912
aI894
aa(lp2924
g204
ag3
aF6691.89
aI12915
aI894
aa(lp2925
g204
ag3
aF6694.63
aI12920
aI894
aa(lp2926
g204
ag3
aF6696.78
aI12921
aI894
aa(lp2927
g204
ag3
aF6699.81
aI12925
aI894
aa(lp2928
g204
ag3
aF6702.23
aI12928
aI894
aa(lp2929
g204
ag3
aF6704.18
aI12928
aI894
aa(lp2930
g204
ag3
aF6706.33
aI12929
aI894
aa(lp2931
g204
ag3
aF6708.13
aI12932
aI894
aa(lp2932
g204
ag3
aF6711.68
aI12939
aI894
aa(lp2933
g204
ag3
aF6713.66
aI12942
aI894
aa(lp2934
g204
ag3
aF6716.71
aI12946
aI894
aa(lp2935
g204
ag3
aF6719.12
aI12949
aI894
aa(lp2936
g204
ag3
aF6721.95
aI12952
aI894
aa(lp2937
g204
ag3
aF6725.07
aI12957
aI894
aa(lp2938
g204
ag3
aF6727.26
aI12960
aI894
aa(lp2939
g204
ag3
aF6729.03
aI12963
aI894
aa(lp2940
g204
ag3
aF6731.5
aI12965
aI894
aa(lp2941
g204
ag3
aF6733.47
aI12968
aI894
aa(lp2942
g204
ag3
aF6735.93
aI12971
aI894
aa(lp2943
g204
ag3
aF6738.53
aI12974
aI894
aa(lp2944
g204
ag3
aF6740.4
aI12975
aI894
aa(lp2945
g204
ag3
aF6743.24
aI12979
aI894
aa(lp2946
g204
ag3
aF6745.13
aI12982
aI894
aa(lp2947
g204
ag3
aF6747.78
aI12986
aI894
aa(lp2948
g204
ag3
aF6750.16
aI12990
aI894
aa(lp2949
g204
ag3
aF6752.8
aI12994
aI894
aa(lp2950
g204
ag3
aF6755.83
aI13000
aI894
aa(lp2951
g204
ag3
aF6757.52
aI13002
aI894
aa(lp2952
g204
ag3
aF6759.28
aI13004
aI894
aa(lp2953
g204
ag3
aF6762.43
aI13009
aI894
aa(lp2954
g204
ag3
aF6765.32
aI13014
aI894
aa(lp2955
g204
ag3
aF6768.58
aI13019
aI894
aa(lp2956
g204
ag3
aF6769.97
aI13021
aI894
aa(lp2957
g204
ag3
aF6772.97
aI13025
aI894
aa(lp2958
g204
ag3
aF6775.49
aI13029
aI894
aa(lp2959
g204
ag3
aF6778.37
aI13032
aI894
aa(lp2960
g204
ag3
aF6782.4
aI13039
aI894
aa(lp2961
g204
ag3
aF6784.3
aI13042
aI894
aa(lp2962
g204
ag3
aF6786.8
aI13045
aI894
aa(lp2963
g204
ag3
aF6788.33
aI13045
aI894
aa(lp2964
g204
ag3
aF6791.08
aI13049
aI894
aa(lp2965
g204
ag3
aF6793.46
aI13052
aI894
aa(lp2966
g204
ag3
aF6795.93
aI13056
aI894
aa(lp2967
g204
ag3
aF6798.24
aI13059
aI894
aa(lp2968
g204
ag3
aF6800.09
aI13061
aI894
aa(lp2969
g204
ag3
aF6803.29
aI13067
aI894
aa(lp2970
g204
ag3
aF6805.34
aI13069
aI894
aa(lp2971
g204
ag3
aF6807.94
aI13071
aI894
aa(lp2972
g204
ag3
aF6810.3
aI13074
aI894
aa(lp2973
g204
ag3
aF6813.54
aI13079
aI894
aa(lp2974
g204
ag3
aF6816.42
aI13084
aI894
aa(lp2975
g204
ag3
aF6818.13
aI13087
aI894
aa(lp2976
g204
ag3
aF6821.1
aI13092
aI894
aa(lp2977
g204
ag3
aF6824.79
aI13098
aI894
aa(lp2978
g204
ag3
aF6827.51
aI13102
aI894
aa(lp2979
g204
ag3
aF6830.32
aI13108
aI894
aa(lp2980
g204
ag3
aF6832.51
aI13111
aI894
aa(lp2981
g204
ag3
aF6835.9
aI13118
aI894
aa(lp2982
g204
ag3
aF6838.31
aI13120
aI894
aa(lp2983
g204
ag3
aF6840.79
aI13123
aI894
aa(lp2984
g204
ag3
aF6843.38
aI13127
aI894
aa(lp2985
g204
ag3
aF6845.79
aI13129
aI894
aa(lp2986
g204
ag3
aF6848.5
aI13134
aI894
aa(lp2987
g204
ag3
aF6850.62
aI13137
aI894
aa(lp2988
g204
ag3
aF6853.44
aI13140
aI894
aa(lp2989
g204
ag3
aF6855.52
aI13144
aI894
aa(lp2990
g204
ag3
aF6858.11
aI13149
aI894
aa(lp2991
g204
ag3
aF6860.92
aI13154
aI894
aa(lp2992
g204
ag3
aF6863.93
aI13158
aI894
aa(lp2993
g204
ag3
aF6865.84
aI13161
aI894
aa(lp2994
g204
ag3
aF6867.52
aI13163
aI894
aa(lp2995
g204
ag3
aF6869.0
aI13164
aI894
aa(lp2996
g204
ag3
aF6871.93
aI13168
aI894
aa(lp2997
g204
ag3
aF6875.01
aI13173
aI894
aa(lp2998
g204
ag3
aF6878.36
aI13179
aI894
aa(lp2999
g204
ag3
aF6880.23
aI13182
aI894
aa(lp3000
g204
ag3
aF6882.76
aI13185
aI894
aa(lp3001
g204
ag3
aF6884.95
aI13187
aI894
aa(lp3002
g204
ag3
aF6887.31
aI13189
aI894
aa(lp3003
g204
ag3
aF6889.51
aI13192
aI894
aa(lp3004
g204
ag3
aF6892.79
aI13196
aI894
aa(lp3005
g204
ag3
aF6894.93
aI13198
aI894
aa(lp3006
g204
ag3
aF6896.22
aI13200
aI894
aa(lp3007
g204
ag3
aF6899.37
aI13205
aI894
aa(lp3008
g204
ag3
aF6902.2
aI13208
aI894
aa(lp3009
g204
ag3
aF6904.49
aI13210
aI894
aa(lp3010
g204
ag3
aF6906.69
aI13213
aI894
aa(lp3011
g204
ag3
aF6908.19
aI13214
aI894
aa(lp3012
g204
ag3
aF6909.93
aI13215
aI894
aa(lp3013
g204
ag3
aF6912.32
aI13218
aI894
aa(lp3014
g204
ag3
aF6915.52
aI13222
aI894
aa(lp3015
g204
ag3
aF6917.86
aI13226
aI894
aa(lp3016
g204
ag3
aF6920.86
aI13231
aI894
aa(lp3017
g204
ag3
aF6922.93
aI13233
aI894
aa(lp3018
g204
ag3
aF6925.29
aI13237
aI894
aa(lp3019
g204
ag3
aF6927.97
aI13241
aI894
aa(lp3020
g204
ag3
aF6930.62
aI13245
aI894
aa(lp3021
g204
ag3
aF6933.1
aI13249
aI894
aa(lp3022
g204
ag3
aF6934.9
aI13251
aI894
aa(lp3023
g204
ag3
aF6937.66
aI13254
aI894
aa(lp3024
g204
ag3
aF6940.84
aI13259
aI894
aa(lp3025
g204
ag3
aF6942.78
aI13261
aI894
aa(lp3026
g204
ag3
aF6946.22
aI13267
aI894
aa(lp3027
g204
ag3
aF6948.66
aI13272
aI894
aa(lp3028
g204
ag3
aF6951.07
aI13276
aI894
aa(lp3029
g204
ag3
aF6953.73
aI13281
aI894
aa(lp3030
g204
ag3
aF6956.37
aI13285
aI894
aa(lp3031
g204
ag3
aF6958.94
aI13289
aI894
aa(lp3032
g204
ag3
aF6961.58
aI13292
aI894
aa(lp3033
g204
ag3
aF6963.48
aI13295
aI894
aa(lp3034
g204
ag3
aF6965.7
aI13298
aI894
aa(lp3035
g204
ag3
aF6967.8
aI13302
aI894
aa(lp3036
g204
ag3
aF6971.37
aI13308
aI894
aa(lp3037
g204
ag3
aF6974.05
aI13312
aI894
aa(lp3038
g204
ag3
aF6976.63
aI13316
aI894
aa(lp3039
g204
ag3
aF6979.53
aI13321
aI894
aa(lp3040
g204
ag3
aF6982.63
aI13326
aI894
aa(lp3041
g204
ag3
aF6984.94
aI13327
aI894
aa(lp3042
g204
ag3
aF6987.74
aI13331
aI894
aa(lp3043
g204
ag3
aF6990.44
aI13335
aI894
aa(lp3044
g204
ag3
aF6992.4
aI13338
aI894
aa(lp3045
g204
ag3
aF6995.94
aI13342
aI894
aa(lp3046
g204
ag3
aF6997.64
aI13345
aI894
aa(lp3047
g204
ag3
aF6998.91
aI13347
aI894
aa(lp3048
g204
ag3
aF7001.54
aI13352
aI894
aa(lp3049
g204
ag3
aF7004.28
aI13357
aI894
aa(lp3050
g204
ag3
aF7006.88
aI13362
aI894
aa(lp3051
g204
ag3
aF7009.85
aI13367
aI894
aa(lp3052
g204
ag3
aF7012.47
aI13371
aI894
aa(lp3053
g204
ag3
aF7015.24
aI13377
aI894
aa(lp3054
g204
ag3
aF7018.95
aI13384
aI894
aa(lp3055
g204
ag3
aF7022.3
aI13390
aI894
aa(lp3056
g204
ag3
aF7025.28
aI13396
aI894
aa(lp3057
g204
ag3
aF7027.32
aI13399
aI894
aa(lp3058
g204
ag3
aF7030.26
aI13404
aI894
aa(lp3059
g204
ag3
aF7032.59
aI13409
aI894
aa(lp3060
g204
ag3
aF7035.8
aI13414
aI894
aa(lp3061
g204
ag3
aF7038.79
aI13419
aI894
aa(lp3062
g204
ag3
aF7040.99
aI13422
aI894
aa(lp3063
g204
ag3
aF7043.07
aI13424
aI894
aa(lp3064
g204
ag3
aF7046.4
aI13429
aI894
aa(lp3065
g204
ag3
aF7049.47
aI13433
aI894
aa(lp3066
g204
ag3
aF7052.29
aI13438
aI894
aa(lp3067
g204
ag3
aF7054.78
aI13441
aI894
aa(lp3068
g204
ag3
aF7056.48
aI13443
aI894
aa(lp3069
g204
ag3
aF7059.76
aI13447
aI894
aa(lp3070
g204
ag3
aF7062.99
aI13453
aI894
aa(lp3071
g204
ag3
aF7065.85
aI13459
aI894
aa(lp3072
g204
ag3
aF7068.61
aI13462
aI894
aa(lp3073
g204
ag3
aF7071.88
aI13467
aI894
aa(lp3074
g204
ag3
aF7074.64
aI13473
aI894
aa(lp3075
g204
ag3
aF7077.53
aI13478
aI894
aa(lp3076
g204
ag3
aF7079.62
aI13480
aI894
aa(lp3077
g204
ag3
aF7082.1
aI13483
aI894
aa(lp3078
g204
ag3
aF7083.56
aI13484
aI894
aa(lp3079
g204
ag3
aF7085.25
aI13487
aI894
aa(lp3080
g204
ag3
aF7087.36
aI13490
aI894
aa(lp3081
g204
ag3
aF7090.65
aI13495
aI894
aa(lp3082
g204
ag3
aF7093.52
aI13499
aI894
aa(lp3083
g204
ag3
aF7095.11
aI13501
aI894
aa(lp3084
g204
ag3
aF7097.63
aI13505
aI894
aa(lp3085
g204
ag3
aF7101.15
aI13511
aI894
aa(lp3086
g204
ag3
aF7104.21
aI13517
aI894
aa(lp3087
g204
ag3
aF7106.64
aI13521
aI894
aa(lp3088
g204
ag3
aF7109.97
aI13528
aI894
aa(lp3089
g204
ag3
aF7112.26
aI13532
aI894
aa(lp3090
g204
ag3
aF7115.84
aI13539
aI894
aa(lp3091
g204
ag3
aF7118.11
aI13542
aI894
aa(lp3092
g204
ag3
aF7121.26
aI13548
aI894
aa(lp3093
g204
ag3
aF7124.21
aI13554
aI894
aa(lp3094
g204
ag3
aF7126.43
aI13557
aI894
aa(lp3095
g204
ag3
aF7129.06
aI13561
aI894
aa(lp3096
g204
ag3
aF7131.57
aI13565
aI894
aa(lp3097
g204
ag3
aF7134.1
aI13569
aI894
aa(lp3098
g204
ag3
aF7136.48
aI13573
aI894
aa(lp3099
g204
ag3
aF7139.11
aI13576
aI894
aa(lp3100
g204
ag3
aF7141.66
aI13578
aI894
aa(lp3101
g204
ag3
aF7144.99
aI13582
aI894
aa(lp3102
g204
ag3
aF7147.69
aI13587
aI894
aa(lp3103
g204
ag3
aF7150.81
aI13593
aI894
aa(lp3104
g204
ag3
aF7152.88
aI13597
aI894
aa(lp3105
g204
ag3
aF7154.73
aI13600
aI894
aa(lp3106
g204
ag3
aF7157.01
aI13604
aI894
aa(lp3107
g204
ag3
aF7159.21
aI13607
aI894
aa(lp3108
g204
ag3
aF7161.63
aI13610
aI894
aa(lp3109
g204
ag3
aF7164.39
aI13615
aI894
aa(lp3110
g204
ag3
aF7167.25
aI13619
aI894
aa(lp3111
g204
ag3
aF7168.75
aI13620
aI894
aa(lp3112
g204
ag3
aF7171.95
aI13626
aI894
aa(lp3113
g204
ag3
aF7174.06
aI13630
aI894
aa(lp3114
g204
ag3
aF7177.65
aI13636
aI894
aa(lp3115
g204
ag3
aF7180.24
aI13641
aI894
aa(lp3116
g204
ag3
aF7182.71
aI13645
aI894
aa(lp3117
g204
ag3
aF7184.72
aI13648
aI894
aa(lp3118
g204
ag3
aF7187.43
aI13654
aI894
aa(lp3119
g204
ag3
aF7190.39
aI13658
aI894
aa(lp3120
g204
ag3
aF7193.13
aI13662
aI894
aa(lp3121
g204
ag3
aF7195.6
aI13666
aI894
aa(lp3122
g204
ag3
aF7198.73
aI13671
aI894
aa(lp3123
g204
ag3
aF7201.73
aI13676
aI894
aa(lp3124
g204
ag3
aF7204.63
aI13681
aI894
aa(lp3125
g204
ag3
aF7207.86
aI13687
aI894
aa(lp3126
g204
ag3
aF7209.63
aI13690
aI894
aa(lp3127
g204
ag3
aF7212.68
aI13696
aI894
aa(lp3128
g204
ag3
aF7215.0
aI13700
aI894
aa(lp3129
g204
ag3
aF7217.62
aI13704
aI894
aa(lp3130
g204
ag3
aF7220.14
aI13707
aI894
aa(lp3131
g204
ag3
aF7222.62
aI13711
aI894
aa(lp3132
g204
ag3
aF7224.29
aI13714
aI894
aa(lp3133
g204
ag3
aF7226.82
aI13717
aI894
aa(lp3134
g204
ag3
aF7229.77
aI13722
aI894
aa(lp3135
g204
ag3
aF7233.11
aI13729
aI894
aa(lp3136
g204
ag3
aF7234.88
aI13731
aI894
aa(lp3137
g204
ag3
aF7237.8
aI13734
aI894
aa(lp3138
g204
ag3
aF7240.63
aI13739
aI894
aa(lp3139
g204
ag3
aF7242.89
aI13742
aI894
aa(lp3140
g204
ag3
aF7245.52
aI13744
aI894
aa(lp3141
g204
ag3
aF7248.48
aI13750
aI894
aa(lp3142
g204
ag3
aF7250.32
aI13751
aI894
aa(lp3143
g204
ag3
aF7253.36
aI13757
aI894
aa(lp3144
g204
ag3
aF7256.95
aI13763
aI894
aa(lp3145
g204
ag3
aF7258.86
aI13765
aI894
aa(lp3146
g204
ag3
aF7260.38
aI13766
aI894
aa(lp3147
g204
ag3
aF7263.08
aI13769
aI894
aa(lp3148
g204
ag3
aF7264.28
aI13770
aI894
aa(lp3149
g204
ag3
aF7267.25
aI13776
aI894
aa(lp3150
g204
ag3
aF7269.98
aI13781
aI894
aa(lp3151
g204
ag3
aF7272.74
aI13786
aI894
aa(lp3152
g204
ag3
aF7275.09
aI13791
aI894
aa(lp3153
g204
ag3
aF7278.39
aI13797
aI894
aa(lp3154
g204
ag3
aF7280.29
aI13799
aI894
aa(lp3155
g204
ag3
aF7283.25
aI13803
aI894
aa(lp3156
g204
ag3
aF7285.4
aI13806
aI894
aa(lp3157
g204
ag3
aF7287.16
aI13808
aI894
aa(lp3158
g204
ag3
aF7289.95
aI13814
aI894
aa(lp3159
g204
ag3
aF7292.56
aI13818
aI894
aa(lp3160
g204
ag3
aF7295.43
aI13823
aI894
aa(lp3161
g204
ag3
aF7298.18
aI13828
aI894
aa(lp3162
g204
ag3
aF7302.07
aI13835
aI894
aa(lp3163
g204
ag3
aF7305.18
aI13841
aI894
aa(lp3164
g204
ag3
aF7308.67
aI13847
aI894
aa(lp3165
g204
ag3
aF7310.78
aI13851
aI894
aa(lp3166
g204
ag3
aF7313.51
aI13856
aI894
aa(lp3167
g204
ag3
aF7316.61
aI13861
aI894
aa(lp3168
g204
ag3
aF7318.58
aI13864
aI894
aa(lp3169
g204
ag3
aF7321.23
aI13867
aI894
aa(lp3170
g204
ag3
aF7323.18
aI13870
aI894
aa(lp3171
g204
ag3
aF7325.22
aI13873
aI894
aa(lp3172
g204
ag3
aF7327.57
aI13876
aI894
aa(lp3173
g204
ag3
aF7330.77
aI13882
aI894
aa(lp3174
g204
ag3
aF7334.02
aI13889
aI894
aa(lp3175
g204
ag3
aF7336.66
aI13893
aI894
aa(lp3176
g204
ag3
aF7338.83
aI13896
aI894
aa(lp3177
g204
ag3
aF7340.71
aI13898
aI894
aa(lp3178
g204
ag3
aF7343.98
aI13904
aI894
aa(lp3179
g204
ag3
aF7347.37
aI13911
aI894
aa(lp3180
g204
ag3
aF7348.99
aI13914
aI894
aa(lp3181
g204
ag3
aF7350.5
aI13916
aI894
aa(lp3182
g204
ag3
aF7353.42
aI13921
aI894
aa(lp3183
g204
ag3
aF7355.77
aI13924
aI894
aa(lp3184
g204
ag3
aF7357.84
aI13928
aI894
aa(lp3185
g204
ag3
aF7360.14
aI13932
aI894
aa(lp3186
g204
ag3
aF7363.26
aI13938
aI894
aa(lp3187
g204
ag3
aF7365.9
aI13940
aI894
aa(lp3188
g204
ag3
aF7369.13
aI13947
aI894
aa(lp3189
g204
ag3
aF7371.74
aI13950
aI894
aa(lp3190
g204
ag3
aF7374.73
aI13955
aI894
aa(lp3191
g204
ag3
aF7377.19
aI13958
aI894
aa(lp3192
g204
ag3
aF7380.34
aI13963
aI894
aa(lp3193
g204
ag3
aF7382.67
aI13967
aI894
aa(lp3194
g204
ag3
aF7384.31
aI13970
aI894
aa(lp3195
g204
ag3
aF7387.34
aI13976
aI894
aa(lp3196
g204
ag3
aF7389.68
aI13981
aI894
aa(lp3197
g204
ag3
aF7392.04
aI13985
aI894
aa(lp3198
g204
ag3
aF7394.38
aI13989
aI894
aa(lp3199
g204
ag3
aF7397.7
aI13995
aI894
aa(lp3200
g204
ag3
aF7399.68
aI13997
aI894
aa(lp3201
g204
ag3
aF7403.49
aI14003
aI894
aa(lp3202
g204
ag3
aF7405.79
aI14007
aI894
aa(lp3203
g204
ag3
aF7408.32
aI14009
aI894
aa(lp3204
g204
ag3
aF7411.26
aI14012
aI894
aa(lp3205
g204
ag3
aF7413.58
aI14016
aI894
aa(lp3206
g204
ag3
aF7416.35
aI14020
aI894
aa(lp3207
g204
ag3
aF7419.04
aI14024
aI894
aa(lp3208
g204
ag3
aF7422.49
aI14031
aI894
aa(lp3209
g204
ag3
aF7426.09
aI14039
aI894
aa(lp3210
g204
ag3
aF7428.88
aI14044
aI894
aa(lp3211
g204
ag3
aF7430.89
aI14047
aI894
aa(lp3212
g204
ag3
aF7433.07
aI14049
aI894
aa(lp3213
g204
ag3
aF7436.23
aI14053
aI894
aa(lp3214
g204
ag3
aF7439.49
aI14059
aI894
aa(lp3215
g204
ag3
aF7442.3
aI14064
aI894
aa(lp3216
g204
ag3
aF7444.7
aI14067
aI894
aa(lp3217
g204
ag3
aF7447.18
aI14070
aI894
aa(lp3218
g204
ag3
aF7450.19
aI14074
aI894
aa(lp3219
g204
ag3
aF7452.9
aI14078
aI894
aa(lp3220
g204
ag3
aF7456.09
aI14084
aI894
aa(lp3221
g204
ag3
aF7458.28
aI14086
aI894
aa(lp3222
g204
ag3
aF7460.56
aI14089
aI894
aa(lp3223
g204
ag3
aF7464.29
aI14096
aI894
aa(lp3224
g204
ag3
aF7466.67
aI14101
aI894
aa(lp3225
g204
ag3
aF7469.17
aI14104
aI894
aa(lp3226
g204
ag3
aF7472.4
aI14110
aI894
aa(lp3227
g204
ag3
aF7474.71
aI14112
aI894
aa(lp3228
g204
ag3
aF7478.13
aI14118
aI894
aa(lp3229
g204
ag3
aF7480.67
aI14122
aI894
aa(lp3230
g204
ag3
aF7483.76
aI14127
aI894
aa(lp3231
g204
ag3
aF7486.06
aI14130
aI894
aa(lp3232
g204
ag3
aF7488.9
aI14135
aI894
aa(lp3233
g204
ag3
aF7491.61
aI14140
aI894
aa(lp3234
g204
ag3
aF7493.94
aI14144
aI894
aa(lp3235
g204
ag3
aF7496.05
aI14146
aI894
aa(lp3236
g204
ag3
aF7499.59
aI14153
aI894
aa(lp3237
g204
ag3
aF7502.7
aI14158
aI894
aa(lp3238
g204
ag3
aF7505.2
aI14162
aI894
aa(lp3239
g204
ag3
aF7508.38
aI14168
aI894
aa(lp3240
g204
ag3
aF7510.6
aI14172
aI894
aa(lp3241
g204
ag3
aF7513.1
aI14177
aI894
aa(lp3242
g204
ag3
aF7514.55
aI14178
aI894
aa(lp3243
g204
ag3
aF7516.91
aI14181
aI894
aa(lp3244
g204
ag3
aF7519.52
aI14185
aI894
aa(lp3245
g204
ag3
aF7522.2
aI14189
aI894
aa(lp3246
g204
ag3
aF7524.45
aI14192
aI894
aa(lp3247
g204
ag3
aF7527.88
aI14199
aI894
aa(lp3248
g204
ag3
aF7530.1
aI14203
aI894
aa(lp3249
g204
ag3
aF7532.92
aI14206
aI894
aa(lp3250
g204
ag3
aF7537.07
aI14215
aI894
aa(lp3251
g204
ag3
aF7539.86
aI14221
aI894
aa(lp3252
g204
ag3
aF7541.98
aI14224
aI894
aa(lp3253
g204
ag3
aF7544.43
aI14227
aI894
aa(lp3254
g204
ag3
aF7546.41
aI14229
aI894
aa(lp3255
g204
ag3
aF7548.86
aI14233
aI894
aa(lp3256
g204
ag3
aF7551.78
aI14237
aI894
aa(lp3257
g204
ag3
aF7554.3
aI14240
aI894
aa(lp3258
g204
ag3
aF7556.41
aI14244
aI894
aa(lp3259
g204
ag3
aF7558.94
aI14247
aI894
aa(lp3260
g204
ag3
aF7561.7
aI14251
aI894
aa(lp3261
g204
ag3
aF7564.67
aI14256
aI894
aa(lp3262
g204
ag3
aF7567.69
aI14262
aI894
aa(lp3263
g204
ag3
aF7570.68
aI14268
aI894
aa(lp3264
g204
ag3
aF7574.18
aI14276
aI894
aa(lp3265
g204
ag3
aF7576.55
aI14280
aI894
aa(lp3266
g204
ag3
aF7579.44
aI14285
aI894
aa(lp3267
g204
ag3
aF7581.4
aI14289
aI894
aa(lp3268
g204
ag3
aF7584.78
aI14296
aI894
aa(lp3269
g204
ag3
aF7587.12
aI14298
aI894
aa(lp3270
g204
ag3
aF7590.3
aI14304
aI894
aa(lp3271
g204
ag3
aF7593.12
aI14308
aI894
aa(lp3272
g204
ag3
aF7595.27
aI14311
aI894
aa(lp3273
g204
ag3
aF7598.46
aI14316
aI894
aa(lp3274
g204
ag3
aF7600.89
aI14321
aI894
aa(lp3275
g204
ag3
aF7603.1
aI14325
aI894
aa(lp3276
g204
ag3
aF7605.45
aI14329
aI894
aa(lp3277
g204
ag3
aF7608.32
aI14333
aI894
aa(lp3278
g204
ag3
aF7610.95
aI14338
aI894
aa(lp3279
g204
ag3
aF7614.67
aI14345
aI894
aa(lp3280
g204
ag3
aF7617.57
aI14349
aI894
aa(lp3281
g204
ag3
aF7620.04
aI14352
aI894
aa(lp3282
g204
ag3
aF7623.06
aI14358
aI894
aa(lp3283
g204
ag3
aF7624.91
aI14361
aI894
aa(lp3284
g204
ag3
aF7628.58
aI14368
aI894
aa(lp3285
g204
ag3
aF7631.87
aI14374
aI894
aa(lp3286
g204
ag3
aF7635.01
aI14377
aI894
aa(lp3287
g204
ag3
aF7637.34
aI14381
aI894
aa(lp3288
g204
ag3
aF7640.82
aI14387
aI894
aa(lp3289
g204
ag3
aF7643.34
aI14390
aI894
aa(lp3290
g204
ag3
aF7646.55
aI14395
aI894
aa(lp3291
g204
ag3
aF7650.09
aI14400
aI894
aa(lp3292
g204
ag3
aF7652.73
aI14405
aI894
aa(lp3293
g204
ag3
aF7655.46
aI14409
aI894
aa(lp3294
g204
ag3
aF7658.55
aI14413
aI894
aa(lp3295
g204
ag3
aF7661.34
aI14417
aI894
aa(lp3296
g204
ag3
aF7663.5
aI14420
aI894
aa(lp3297
g204
ag3
aF7665.96
aI14425
aI894
aa(lp3298
g204
ag3
aF7667.86
aI14427
aI894
aa(lp3299
g204
ag3
aF7670.58
aI14431
aI894
aa(lp3300
g204
ag3
aF7672.89
aI14435
aI894
aa(lp3301
g204
ag3
aF7675.9
aI14440
aI894
aa(lp3302
g204
ag3
aF7678.88
aI14446
aI894
aa(lp3303
g204
ag3
aF7682.11
aI14451
aI894
aa(lp3304
g204
ag3
aF7685.4
aI14458
aI894
aa(lp3305
g204
ag3
aF7687.42
aI14461
aI894
aa(lp3306
g204
ag3
aF7690.44
aI14465
aI894
aa(lp3307
g204
ag3
aF7693.75
aI14471
aI894
aa(lp3308
g204
ag3
aF7696.53
aI14475
aI894
aa(lp3309
g204
ag3
aF7699.58
aI14481
aI894
aa(lp3310
g204
ag3
aF7702.93
aI14487
aI894
aa(lp3311
g204
ag3
aF7705.28
aI14489
aI894
aa(lp3312
g204
ag3
aF7707.17
aI14492
aI894
aa(lp3313
g204
ag3
aF7709.98
aI14496
aI894
aa(lp3314
g204
ag3
aF7712.43
aI14500
aI894
aa(lp3315
g204
ag3
aF7715.67
aI14506
aI894
aa(lp3316
g204
ag3
aF7718.61
aI14511
aI894
aa(lp3317
g204
ag3
aF7719.8
aI14512
aI894
aa(lp3318
g204
ag3
aF7722.77
aI14518
aI894
aa(lp3319
g204
ag3
aF7726.02
aI14523
aI894
aa(lp3320
g204
ag3
aF7728.92
aI14527
aI894
aa(lp3321
g204
ag3
aF7731.26
aI14530
aI894
aa(lp3322
g204
ag3
aF7734.62
aI14536
aI894
aa(lp3323
g204
ag3
aF7737.81
aI14541
aI894
aa(lp3324
g204
ag3
aF7740.31
aI14546
aI894
aa(lp3325
g204
ag3
aF7742.77
aI14549
aI894
aa(lp3326
g204
ag3
aF7745.59
aI14554
aI894
aa(lp3327
g204
ag3
aF7747.85
aI14558
aI894
aa(lp3328
g204
ag3
aF7750.13
aI14561
aI894
aa(lp3329
g204
ag3
aF7753.3
aI14568
aI894
aa(lp3330
g204
ag3
aF7755.73
aI14572
aI894
aa(lp3331
g204
ag3
aF7758.13
aI14577
aI894
aa(lp3332
g204
ag3
aF7760.12
aI14579
aI894
aa(lp3333
g204
ag3
aF7762.46
aI14584
aI894
aa(lp3334
g204
ag3
aF7765.08
aI14588
aI894
aa(lp3335
g204
ag3
aF7766.49
aI14589
aI894
aa(lp3336
g204
ag3
aF7769.62
aI14594
aI894
aa(lp3337
g204
ag3
aF7772.62
aI14600
aI894
aa(lp3338
g204
ag3
aF7775.92
aI14607
aI894
aa(lp3339
g204
ag3
aF7777.97
aI14611
aI894
aa(lp3340
g204
ag3
aF7780.37
aI14616
aI894
aa(lp3341
g204
ag3
aF7783.59
aI14622
aI894
aa(lp3342
g204
ag3
aF7786.66
aI14628
aI894
aa(lp3343
g204
ag3
aF7789.09
aI14630
aI894
aa(lp3344
g204
ag3
aF7791.84
aI14635
aI894
aa(lp3345
g204
ag3
aF7794.11
aI14639
aI894
aa(lp3346
g204
ag3
aF7796.75
aI14644
aI894
aa(lp3347
g204
ag3
aF7798.82
aI14648
aI894
aa(lp3348
g204
ag3
aF7800.79
aI14651
aI894
aa(lp3349
g204
ag3
aF7803.63
aI14656
aI894
aa(lp3350
g204
ag3
aF7805.97
aI14659
aI894
aa(lp3351
g204
ag3
aF7808.92
aI14664
aI894
aa(lp3352
g204
ag3
aF7811.62
aI14668
aI894
aa(lp3353
g204
ag3
aF7814.09
aI14671
aI894
aa(lp3354
g204
ag3
aF7816.62
aI14674
aI894
aa(lp3355
g204
ag3
aF7818.71
aI14677
aI894
aa(lp3356
g204
ag3
aF7821.86
aI14684
aI894
aa(lp3357
g204
ag3
aF7824.01
aI14687
aI894
aa(lp3358
g204
ag3
aF7826.4
aI14690
aI894
aa(lp3359
g204
ag3
aF7828.91
aI14694
aI894
aa(lp3360
g204
ag3
aF7831.86
aI14698
aI894
aa(lp3361
g204
ag3
aF7834.16
aI14701
aI894
aa(lp3362
g204
ag3
aF7836.77
aI14703
aI894
aa(lp3363
g204
ag3
aF7840.53
aI14710
aI894
aa(lp3364
g204
ag3
aF7841.74
aI14711
aI894
aa(lp3365
g204
ag3
aF7844.31
aI14715
aI894
aa(lp3366
g204
ag3
aF7846.94
aI14720
aI894
aa(lp3367
g204
ag3
aF7849.16
aI14723
aI894
aa(lp3368
g204
ag3
aF7851.61
aI14726
aI894
aa(lp3369
g204
ag3
aF7854.01
aI14731
aI894
aa(lp3370
g204
ag3
aF7857.05
aI14737
aI894
aa(lp3371
g204
ag3
aF7859.35
aI14740
aI894
aa(lp3372
g204
ag3
aF7861.88
aI14744
aI894
aa(lp3373
g204
ag3
aF7865.26
aI14751
aI894
aa(lp3374
g204
ag3
aF7868.65
aI14757
aI894
aa(lp3375
g204
ag3
aF7871.56
aI14761
aI894
aa(lp3376
g204
ag3
aF7873.8
aI14765
aI894
aa(lp3377
g204
ag3
aF7876.01
aI14769
aI894
aa(lp3378
g204
ag3
aF7878.94
aI14773
aI894
aa(lp3379
g204
ag3
aF7881.76
aI14778
aI894
aa(lp3380
g204
ag3
aF7884.62
aI14781
aI894
aa(lp3381
g204
ag3
aF7887.33
aI14784
aI894
aa(lp3382
g204
ag3
aF7889.49
aI14787
aI894
aa(lp3383
g204
ag3
aF7892.19
aI14792
aI894
aa(lp3384
g204
ag3
aF7895.04
aI14795
aI894
aa(lp3385
g204
ag3
aF7897.11
aI14799
aI894
aa(lp3386
g204
ag3
aF7900.2
aI14805
aI894
aa(lp3387
g204
ag3
aF7901.9
aI14807
aI894
aa(lp3388
g204
ag3
aF7904.98
aI14811
aI894
aa(lp3389
g204
ag3
aF7906.86
aI14814
aI894
aa(lp3390
g204
ag3
aF7908.8
aI14816
aI894
aa(lp3391
g204
ag3
aF7910.84
aI14820
aI894
aa(lp3392
g204
ag3
aF7912.48
aI14823
aI894
aa(lp3393
g204
ag3
aF7914.62
aI14826
aI894
aa(lp3394
g204
ag3
aF7916.25
aI14828
aI894
aa(lp3395
g204
ag3
aF7917.72
aI14829
aI894
aa(lp3396
g204
ag3
aF7920.15
aI14832
aI894
aa(lp3397
g204
ag3
aF7921.8
aI14834
aI894
aa(lp3398
g204
ag3
aF7924.96
aI14838
aI894
aa(lp3399
g204
ag3
aF7927.88
aI14844
aI894
aa(lp3400
g204
ag3
aF7930.93
aI14849
aI894
aa(lp3401
g204
ag3
aF7935.01
aI14856
aI894
aa(lp3402
g204
ag3
aF7938.29
aI14862
aI894
aa(lp3403
g204
ag3
aF7940.25
aI14866
aI894
aa(lp3404
g204
ag3
aF7942.2
aI14869
aI894
aa(lp3405
g204
ag3
aF7944.6
aI14874
aI894
aa(lp3406
g204
ag3
aF7946.93
aI14877
aI894
aa(lp3407
g204
ag3
aF7948.99
aI14880
aI894
aa(lp3408
g204
ag3
aF7952.03
aI14885
aI894
aa(lp3409
g204
ag3
aF7954.53
aI14889
aI894
aa(lp3410
g204
ag3
aF7956.85
aI14892
aI894
aa(lp3411
g204
ag3
aF7959.98
aI14899
aI894
aa(lp3412
g204
ag3
aF7961.86
aI14902
aI894
aa(lp3413
g204
ag3
aF7964.19
aI14906
aI894
aa(lp3414
g204
ag3
aF7966.47
aI14908
aI894
aa(lp3415
g204
ag3
aF7969.05
aI14912
aI894
aa(lp3416
g204
ag3
aF7970.83
aI14913
aI894
aa(lp3417
g204
ag3
aF7972.97
aI14916
aI894
aa(lp3418
g204
ag3
aF7976.56
aI14922
aI894
aa(lp3419
g204
ag3
aF7980.2
aI14930
aI894
aa(lp3420
g204
ag3
aF7983.29
aI14936
aI894
aa(lp3421
g204
ag3
aF7986.32
aI14939
aI894
aa(lp3422
g204
ag3
aF7988.9
aI14944
aI894
aa(lp3423
g204
ag3
aF7991.73
aI14947
aI894
aa(lp3424
g204
ag3
aF7994.47
aI14951
aI894
aa(lp3425
g204
ag3
aF7997.48
aI14956
aI894
aa(lp3426
g204
ag3
aF8000.45
aI14962
aI894
aa(lp3427
g204
ag3
aF8002.8
aI14965
aI894
aa(lp3428
g204
ag3
aF8005.14
aI14969
aI894
aa(lp3429
g204
ag3
aF8008.03
aI14974
aI894
aa(lp3430
g204
ag3
aF8010.85
aI14979
aI894
aa(lp3431
g204
ag3
aF8013.3
aI14984
aI894
aa(lp3432
g204
ag3
aF8016.11
aI14988
aI894
aa(lp3433
g204
ag3
aF8019.04
aI14993
aI894
aa(lp3434
g204
ag3
aF8021.14
aI14995
aI894
aa(lp3435
g204
ag3
aF8023.84
aI14998
aI894
aa(lp3436
g204
ag3
aF8027.24
aI15005
aI894
aa(lp3437
g204
ag3
aF8029.6
aI15009
aI894
aa(lp3438
g204
ag3
aF8032.42
aI15012
aI894
aa(lp3439
g204
ag3
aF8035.27
aI15018
aI894
aa(lp3440
g204
ag3
aF8037.63
aI15020
aI894
aa(lp3441
g204
ag3
aF8040.12
aI15023
aI894
aa(lp3442
g204
ag3
aF8042.64
aI15027
aI894
aa(lp3443
g204
ag3
aF8045.38
aI15032
aI894
aa(lp3444
g204
ag3
aF8048.25
aI15037
aI894
aa(lp3445
g204
ag3
aF8051.15
aI15042
aI894
aa(lp3446
g204
ag3
aF8053.84
aI15046
aI894
aa(lp3447
g204
ag3
aF8056.92
aI15052
aI894
aa(lp3448
g204
ag3
aF8060.03
aI15057
aI894
aa(lp3449
g204
ag3
aF8061.83
aI15060
aI894
aa(lp3450
g204
ag3
aF8064.04
aI15063
aI894
aa(lp3451
g204
ag3
aF8067.36
aI15070
aI894
aa(lp3452
g204
ag3
aF8070.01
aI15075
aI894
aa(lp3453
g204
ag3
aF8073.15
aI15078
aI894
aa(lp3454
g204
ag3
aF8076.29
aI15084
aI894
aa(lp3455
g204
ag3
aF8078.76
aI15087
aI894
aa(lp3456
g204
ag3
aF8082.39
aI15093
aI894
aa(lp3457
g204
ag3
aF8085.22
aI15098
aI894
aa(lp3458
g204
ag3
aF8088.58
aI15103
aI894
aa(lp3459
g204
ag3
aF8091.4
aI15109
aI894
aa(lp3460
g204
ag3
aF8094.81
aI15115
aI894
aa(lp3461
g204
ag3
aF8097.98
aI15122
aI894
aa(lp3462
g204
ag3
aF8100.05
aI15125
aI894
aa(lp3463
g204
ag3
aF8103.26
aI15129
aI894
aa(lp3464
g204
ag3
aF8106.33
aI15135
aI894
aa(lp3465
g204
ag3
aF8109.63
aI15141
aI894
aa(lp3466
g204
ag3
aF8113.39
aI15148
aI894
aa(lp3467
g204
ag3
aF8117.64
aI15158
aI894
aa(lp3468
g204
ag3
aF8119.97
aI15162
aI894
aa(lp3469
g204
ag3
aF8121.84
aI15163
aI894
aa(lp3470
g204
ag3
aF8124.06
aI15166
aI894
aa(lp3471
g204
ag3
aF8126.75
aI15170
aI894
aa(lp3472
g204
ag3
aF8129.42
aI15174
aI894
aa(lp3473
g204
ag3
aF8132.0
aI15178
aI894
aa(lp3474
g204
ag3
aF8135.18
aI15183
aI894
aa(lp3475
g204
ag3
aF8137.65
aI15188
aI894
aa(lp3476
g204
ag3
aF8139.64
aI15191
aI894
aa(lp3477
g204
ag3
aF8142.04
aI15195
aI894
aa(lp3478
g204
ag3
aF8143.68
aI15196
aI894
aa(lp3479
g204
ag3
aF8146.52
aI15201
aI894
aa(lp3480
g204
ag3
aF8148.75
aI15204
aI894
aa(lp3481
g204
ag3
aF8151.38
aI15208
aI894
aa(lp3482
g204
ag3
aF8153.49
aI15211
aI894
aa(lp3483
g204
ag3
aF8155.83
aI15215
aI894
aa(lp3484
g204
ag3
aF8159.42
aI15220
aI894
aa(lp3485
g204
ag3
aF8161.93
aI15224
aI894
aa(lp3486
g204
ag3
aF8163.47
aI15225
aI894
aa(lp3487
g204
ag3
aF8165.64
aI15228
aI894
aa(lp3488
g204
ag3
aF8167.92
aI15231
aI894
aa(lp3489
g204
ag3
aF8170.86
aI15235
aI894
aa(lp3490
g204
ag3
aF8173.74
aI15240
aI894
aa(lp3491
g204
ag3
aF8177.32
aI15248
aI894
aa(lp3492
g204
ag3
aF8180.29
aI15253
aI894
aa(lp3493
g204
ag3
aF8183.86
aI15259
aI894
aa(lp3494
g204
ag3
aF8186.37
aI15263
aI894
aa(lp3495
g204
ag3
aF8189.04
aI15267
aI894
aa(lp3496
g204
ag3
aF8190.92
aI15269
aI894
aa(lp3497
g204
ag3
aF8193.64
aI15274
aI894
aa(lp3498
g204
ag3
aF8197.61
aI15282
aI894
aa(lp3499
g204
ag3
aF8199.73
aI15284
aI894
aa(lp3500
g204
ag3
aF8203.29
aI15291
aI894
aa(lp3501
g204
ag3
aF8205.51
aI15295
aI894
aa(lp3502
g204
ag3
aF8207.77
aI15298
aI894
aa(lp3503
g204
ag3
aF8211.42
aI15306
aI894
aa(lp3504
g204
ag3
aF8214.05
aI15310
aI894
aa(lp3505
g204
ag3
aF8217.17
aI15315
aI894
aa(lp3506
g204
ag3
aF8219.97
aI15318
aI894
aa(lp3507
g204
ag3
aF8221.9
aI15320
aI894
aa(lp3508
g204
ag3
aF8223.99
aI15322
aI894
aa(lp3509
g204
ag3
aF8226.57
aI15327
aI894
aa(lp3510
g204
ag3
aF8230.08
aI15334
aI894
aa(lp3511
g204
ag3
aF8233.75
aI15340
aI894
aa(lp3512
g204
ag3
aF8236.93
aI15346
aI894
aa(lp3513
g204
ag3
aF8240.24
aI15351
aI894
aa(lp3514
g204
ag3
aF8243.25
aI15355
aI894
aa(lp3515
g204
ag3
aF8246.51
aI15360
aI894
aa(lp3516
g204
ag3
aF8248.75
aI15362
aI894
aa(lp3517
g204
ag3
aF8251.52
aI15367
aI894
aa(lp3518
g204
ag3
aF8254.94
aI15374
aI894
aa(lp3519
g204
ag3
aF8257.98
aI15378
aI894
aa(lp3520
g204
ag3
aF8260.67
aI15383
aI894
aa(lp3521
g204
ag3
aF8264.21
aI15390
aI894
aa(lp3522
g204
ag3
aF8266.39
aI15391
aI894
aa(lp3523
g204
ag3
aF8269.95
aI15398
aI894
aa(lp3524
g204
ag3
aF8272.75
aI15403
aI894
aa(lp3525
g204
ag3
aF8275.66
aI15407
aI894
aa(lp3526
g204
ag3
aF8279.46
aI15415
aI894
aa(lp3527
g204
ag3
aF8282.52
aI15421
aI894
aa(lp3528
g204
ag3
aF8285.06
aI15425
aI894
aa(lp3529
g204
ag3
aF8286.68
aI15427
aI894
aa(lp3530
g204
ag3
aF8289.99
aI15434
aI894
aa(lp3531
g204
ag3
aF8292.91
aI15439
aI894
aa(lp3532
g204
ag3
aF8296.02
aI15444
aI894
aa(lp3533
g204
ag3
aF8298.28
aI15447
aI894
aa(lp3534
g204
ag3
aF8301.04
aI15453
aI894
aa(lp3535
g204
ag3
aF8304.07
aI15459
aI894
aa(lp3536
g204
ag3
aF8306.33
aI15462
aI894
aa(lp3537
g204
ag3
aF8309.37
aI15467
aI894
aa(lp3538
g204
ag3
aF8312.15
aI15471
aI894
aa(lp3539
g204
ag3
aF8315.44
aI15476
aI894
aa(lp3540
g204
ag3
aF8318.1
aI15481
aI894
aa(lp3541
g204
ag3
aF8320.83
aI15487
aI894
aa(lp3542
g204
ag3
aF8323.22
aI15490
aI894
aa(lp3543
g204
ag3
aF8325.86
aI15494
aI894
aa(lp3544
g204
ag3
aF8328.81
aI15499
aI894
aa(lp3545
g204
ag3
aF8331.99
aI15504
aI894
aa(lp3546
g204
ag3
aF8334.75
aI15507
aI894
aa(lp3547
g204
ag3
aF8337.28
aI15511
aI894
aa(lp3548
g204
ag3
aF8340.22
aI15517
aI894
aa(lp3549
g204
ag3
aF8342.07
aI15520
aI894
aa(lp3550
g204
ag3
aF8345.22
aI15527
aI894
aa(lp3551
g204
ag3
aF8347.5
aI15531
aI894
aa(lp3552
g204
ag3
aF8350.38
aI15534
aI894
aa(lp3553
g204
ag3
aF8352.92
aI15538
aI894
aa(lp3554
g204
ag3
aF8355.16
aI15541
aI894
aa(lp3555
g204
ag3
aF8359.32
aI15550
aI894
aa(lp3556
g204
ag3
aF8361.79
aI15554
aI894
aa(lp3557
g204
ag3
aF8363.84
aI15557
aI894
aa(lp3558
g204
ag3
aF8366.45
aI15560
aI894
aa(lp3559
g204
ag3
aF8369.3
aI15564
aI894
aa(lp3560
g204
ag3
aF8372.88
aI15571
aI894
aa(lp3561
g204
ag3
aF8375.34
aI15575
aI894
aa(lp3562
g204
ag3
aF8377.53
aI15578
aI894
aa(lp3563
g204
ag3
aF8380.43
aI15581
aI894
aa(lp3564
g204
ag3
aF8383.43
aI15587
aI894
aa(lp3565
g204
ag3
aF8386.3
aI15591
aI894
aa(lp3566
g204
ag3
aF8390.28
aI15600
aI894
aa(lp3567
g204
ag3
aF8393.47
aI15605
aI894
aa(lp3568
g204
ag3
aF8396.57
aI15610
aI894
aa(lp3569
g204
ag3
aF8400.19
aI15616
aI894
aa(lp3570
g204
ag3
aF8403.69
aI15622
aI894
aa(lp3571
g204
ag3
aF8405.98
aI15626
aI894
aa(lp3572
g204
ag3
aF8408.53
aI15630
aI894
aa(lp3573
g204
ag3
aF8411.43
aI15635
aI894
aa(lp3574
g204
ag3
aF8414.43
aI15641
aI894
aa(lp3575
g204
ag3
aF8417.14
aI15645
aI894
aa(lp3576
g204
ag3
aF8420.26
aI15649
aI894
aa(lp3577
g204
ag3
aF8422.96
aI15654
aI894
aa(lp3578
g204
ag3
aF8425.06
aI15655
aI894
aa(lp3579
g204
ag3
aF8427.69
aI15659
aI894
aa(lp3580
g204
ag3
aF8430.89
aI15665
aI894
aa(lp3581
g204
ag3
aF8433.4
aI15670
aI894
aa(lp3582
g204
ag3
aF8436.4
aI15676
aI894
aa(lp3583
g204
ag3
aF8438.86
aI15679
aI894
aa(lp3584
g204
ag3
aF8441.76
aI15684
aI894
aa(lp3585
g204
ag3
aF8443.29
aI15686
aI894
aa(lp3586
g204
ag3
aF8445.91
aI15690
aI894
aa(lp3587
g204
ag3
aF8449.21
aI15697
aI894
aa(lp3588
g204
ag3
aF8451.79
aI15701
aI894
aa(lp3589
g204
ag3
aF8455.21
aI15707
aI894
aa(lp3590
g204
ag3
aF8457.73
aI15711
aI894
aa(lp3591
g204
ag3
aF8459.97
aI15713
aI894
aa(lp3592
g204
ag3
aF8462.34
aI15716
aI894
aa(lp3593
g204
ag3
aF8463.84
aI15717
aI894
aa(lp3594
g204
ag3
aF8467.6
aI15725
aI894
aa(lp3595
g204
ag3
aF8469.33
aI15728
aI894
aa(lp3596
g204
ag3
aF8471.75
aI15732
aI894
aa(lp3597
g204
ag3
aF8474.06
aI15735
aI894
aa(lp3598
g204
ag3
aF8476.4
aI15739
aI894
aa(lp3599
g204
ag3
aF8479.94
aI15745
aI894
aa(lp3600
g204
ag3
aF8482.99
aI15750
aI894
aa(lp3601
g204
ag3
aF8485.71
aI15754
aI894
aa(lp3602
g204
ag3
aF8488.79
aI15759
aI894
aa(lp3603
g204
ag3
aF8491.5
aI15762
aI894
aa(lp3604
g204
ag3
aF8494.25
aI15767
aI894
aa(lp3605
g204
ag3
aF8498.61
aI15772
aI894
aa(lp3606
g204
ag3
aF8501.94
aI15778
aI894
aa(lp3607
g204
ag3
aF8504.65
aI15782
aI894
aa(lp3608
g204
ag3
aF8507.91
aI15788
aI894
aa(lp3609
g204
ag3
aF8510.87
aI15794
aI894
aa(lp3610
g204
ag3
aF8513.77
aI15799
aI894
aa(lp3611
g204
ag3
aF8516.03
aI15802
aI894
aa(lp3612
g204
ag3
aF8518.82
aI15806
aI894
aa(lp3613
g204
ag3
aF8520.76
aI15807
aI894
aa(lp3614
g204
ag3
aF8523.97
aI15811
aI894
aa(lp3615
g204
ag3
aF8525.37
aI15812
aI894
aa(lp3616
g204
ag3
aF8528.27
aI15814
aI894
aa(lp3617
g204
ag3
aF8530.78
aI15815
aI894
aa(lp3618
g204
ag3
aF8533.58
aI15817
aI894
aa(lp3619
g204
ag3
aF8536.28
aI15819
aI894
aa(lp3620
g204
ag3
aF8539.12
aI15822
aI894
aa(lp3621
g204
ag3
aF8541.67
aI15825
aI894
aa(lp3622
g204
ag3
aF8544.18
aI15827
aI894
aa(lp3623
g204
ag3
aF8546.54
aI15827
aI894
aa(lp3624
g204
ag3
aF8549.62
aI15829
aI894
aa(lp3625
g204
ag3
aF8552.03
aI15830
aI894
aa(lp3626
g204
ag3
aF8555.29
aI15832
aI894
aa(lp3627
g204
ag3
aF8557.86
aI15833
aI894
aa(lp3628
g204
ag3
aF8559.23
aI15833
aI894
aa(lp3629
g204
ag3
aF8561.83
aI15833
aI894
aa(lp3630
g204
ag3
aF8564.12
aI15835
aI894
aa(lp3631
g204
ag3
aF8567.17
aI15837
aI894
aa(lp3632
g204
ag3
aF8570.19
aI15839
aI894
aa(lp3633
g204
ag3
aF8572.54
aI15840
aI894
aa(lp3634
g204
ag3
aF8574.94
aI15842
aI894
aa(lp3635
g204
ag3
aF8577.41
aI15843
aI894
aa(lp3636
g204
ag3
aF8580.33
aI15846
aI894
aa(lp3637
g204
ag3
aF8582.3
aI15847
aI894
aa(lp3638
g204
ag3
aF8585.2
aI15849
aI894
aa(lp3639
g204
ag3
aF8588.1
aI15853
aI894
aa(lp3640
g204
ag3
aF8590.66
aI15853
aI894
aa(lp3641
g204
ag3
aF8592.74
aI15853
aI894
aa(lp3642
g204
ag3
aF8595.44
aI15853
aI894
aa(lp3643
g204
ag3
aF8597.72
aI15854
aI894
aa(lp3644
g204
ag3
aF8600.21
aI15855
aI894
aa(lp3645
g204
ag3
aF8602.66
aI15856
aI894
aa(lp3646
g204
ag3
aF8605.48
aI15858
aI894
aa(lp3647
g204
ag3
aF8607.9
aI15858
aI894
aa(lp3648
g204
ag3
aF8611.25
aI15860
aI894
aa(lp3649
g204
ag3
aF8613.12
aI15862
aI894
aa(lp3650
g204
ag3
aF8615.8
aI15863
aI894
aa(lp3651
g204
ag3
aF8618.67
aI15866
aI894
aa(lp3652
g204
ag3
aF8621.81
aI15868
aI894
aa(lp3653
g204
ag3
aF8624.86
aI15870
aI894
aa(lp3654
g204
ag3
aF8627.97
aI15874
aI894
aa(lp3655
g204
ag3
aF8630.38
aI15875
aI894
aa(lp3656
g204
ag3
aF8632.98
aI15878
aI894
aa(lp3657
g204
ag3
aF8634.18
aI15878
aI894
aa(lp3658
g204
ag3
aF8636.18
aI15881
aI894
aa(lp3659
g204
ag3
aF8638.11
aI15884
aI894
aa(lp3660
g204
ag3
aF8640.72
aI15884
aI894
aa(lp3661
g204
ag3
aF8642.36
aI15884
aI894
aa(lp3662
g204
ag3
aF8645.0
aI15886
aI894
aa(lp3663
g204
ag3
aF8647.97
aI15889
aI894
aa(lp3664
g204
ag3
aF8650.45
aI15891
aI894
aa(lp3665
g204
ag3
aF8653.4
aI15893
aI894
aa(lp3666
g204
ag3
aF8655.38
aI15893
aI894
aa(lp3667
g204
ag3
aF8658.21
aI15894
aI894
aa(lp3668
g204
ag3
aF8660.75
aI15895
aI894
aa(lp3669
g204
ag3
aF8662.49
aI15895
aI894
aa.