(lp0
(lp1
S'me'
p2
aS'LoginService2.sk_23_36.cnf'
p3
aF54.077
aI5
aI172
aa(lp4
g2
ag3
aF54.3356
aI5
aI172
aa(lp5
g2
ag3
aF54.6004
aI5
aI172
aa(lp6
g2
ag3
aF54.9828
aI8
aI369
aa(lp7
g2
ag3
aF55.2611
aI10
aI858
aa(lp8
g2
ag3
aF55.5508
aI12
aI866
aa(lp9
g2
ag3
aF55.835
aI15
aI961
aa(lp10
g2
ag3
aF56.1088
aI16
aI961
aa(lp11
g2
ag3
aF56.4004
aI20
aI969
aa(lp12
g2
ag3
aF56.7286
aI27
aI986
aa(lp13
g2
ag3
aF57.0433
aI35
aI986
aa(lp14
g2
ag3
aF57.3624
aI43
aI986
aa(lp15
g2
ag3
aF57.6392
aI44
aI986
aa(lp16
g2
ag3
aF57.9182
aI46
aI1000
aa(lp17
g2
ag3
aF58.1847
aI46
aI1000
aa(lp18
g2
ag3
aF58.4625
aI48
aI1000
aa(lp19
g2
ag3
aF58.7274
aI48
aI1000
aa(lp20
g2
ag3
aF59.0762
aI56
aI2078
aa(lp21
g2
ag3
aF59.3521
aI58
aI2078
aa(lp22
g2
ag3
aF59.7408
aI70
aI2372
aa(lp23
g2
ag3
aF60.1264
aI86
aI2372
aa(lp24
g2
ag3
aF60.4292
aI91
aI2372
aa(lp25
g2
ag3
aF60.7239
aI95
aI2372
aa(lp26
g2
ag3
aF61.0156
aI96
aI2372
aa(lp27
g2
ag3
aF61.2793
aI96
aI2372
aa(lp28
g2
ag3
aF61.5481
aI97
aI2372
aa(lp29
g2
ag3
aF61.8451
aI102
aI2372
aa(lp30
g2
ag3
aF62.1532
aI106
aI2372
aa(lp31
g2
ag3
aF62.4258
aI107
aI2372
aa(lp32
g2
ag3
aF62.7058
aI109
aI2372
aa(lp33
g2
ag3
aF62.9841
aI110
aI2372
aa(lp34
g2
ag3
aF63.253
aI111
aI2372
aa(lp35
g2
ag3
aF63.5605
aI118
aI2372
aa(lp36
g2
ag3
aF63.8651
aI124
aI2372
aa(lp37
g2
ag3
aF64.1621
aI129
aI2372
aa(lp38
g2
ag3
aF64.4568
aI134
aI2372
aa(lp39
g2
ag3
aF64.739
aI137
aI2372
aa(lp40
g2
ag3
aF65.0459
aI143
aI2372
aa(lp41
g2
ag3
aF65.2947
aI147
aI2372
aa(lp42
g2
ag3
aF65.5804
aI150
aI2372
aa(lp43
g2
ag3
aF65.872
aI153
aI2372
aa(lp44
g2
ag3
aF66.1613
aI155
aI2372
aa(lp45
g2
ag3
aF66.4755
aI160
aI2372
aa(lp46
g2
ag3
aF66.7874
aI166
aI2372
aa(lp47
g2
ag3
aF67.144
aI178
aI2372
aa(lp48
g2
ag3
aF67.4327
aI181
aI2372
aa(lp49
g2
ag3
aF67.7237
aI185
aI2372
aa(lp50
g2
ag3
aF67.9908
aI185
aI2372
aa(lp51
g2
ag3
aF68.2919
aI191
aI2372
aa(lp52
g2
ag3
aF68.6119
aI199
aI2372
aa(lp53
g2
ag3
aF68.8973
aI202
aI2372
aa(lp54
g2
ag3
aF69.1758
aI203
aI2372
aa(lp55
g2
ag3
aF69.5056
aI212
aI2372
aa(lp56
g2
ag3
aF69.8081
aI215
aI2372
aa(lp57
g2
ag3
aF70.1016
aI220
aI2372
aa(lp58
g2
ag3
aF70.4226
aI228
aI2372
aa(lp59
g2
ag3
aF70.7444
aI235
aI2372
aa(lp60
g2
ag3
aF71.0253
aI237
aI2372
aa(lp61
g2
ag3
aF71.2693
aI240
aI2372
aa(lp62
g2
ag3
aF71.5047
aI243
aI2372
aa(lp63
g2
ag3
aF71.7921
aI246
aI2372
aa(lp64
g2
ag3
aF72.0579
aI246
aI2372
aa(lp65
g2
ag3
aF72.3785
aI255
aI2372
aa(lp66
g2
ag3
aF72.7037
aI264
aI2372
aa(lp67
g2
ag3
aF73.0137
aI270
aI2372
aa(lp68
g2
ag3
aF73.2918
aI271
aI2372
aa(lp69
g2
ag3
aF73.5905
aI276
aI2372
aa(lp70
g2
ag3
aF73.9161
aI285
aI2372
aa(lp71
g2
ag3
aF74.2003
aI292
aI2372
aa(lp72
g2
ag3
aF74.4753
aI293
aI2372
aa(lp73
g2
ag3
aF74.7575
aI295
aI2372
aa(lp74
g2
ag3
aF75.0496
aI299
aI2372
aa(lp75
g2
ag3
aF75.3509
aI304
aI2372
aa(lp76
g2
ag3
aF75.6555
aI307
aI2372
aa(lp77
g2
ag3
aF75.9324
aI309
aI2372
aa(lp78
g2
ag3
aF76.2155
aI311
aI2372
aa(lp79
g2
ag3
aF76.4925
aI313
aI2372
aa(lp80
g2
ag3
aF76.7814
aI316
aI2372
aa(lp81
g2
ag3
aF77.058
aI318
aI2372
aa(lp82
g2
ag3
aF77.3579
aI321
aI2372
aa(lp83
g2
ag3
aF77.6493
aI324
aI2372
aa(lp84
g2
ag3
aF77.9893
aI335
aI2372
aa(lp85
g2
ag3
aF78.2825
aI340
aI2372
aa(lp86
g2
ag3
aF78.5946
aI344
aI2372
aa(lp87
g2
ag3
aF78.8393
aI347
aI2372
aa(lp88
g2
ag3
aF79.1594
aI355
aI2372
aa(lp89
g2
ag3
aF79.4418
aI357
aI2372
aa(lp90
g2
ag3
aF79.718
aI361
aI2372
aa(lp91
g2
ag3
aF80.0096
aI365
aI2372
aa(lp92
g2
ag3
aF80.3194
aI371
aI2372
aa(lp93
g2
ag3
aF80.5909
aI372
aI2372
aa(lp94
g2
ag3
aF80.859
aI373
aI2372
aa(lp95
g2
ag3
aF81.1624
aI378
aI2372
aa(lp96
g2
ag3
aF81.4514
aI382
aI2372
aa(lp97
g2
ag3
aF81.7336
aI384
aI2372
aa(lp98
g2
ag3
aF82.0113
aI386
aI2372
aa(lp99
g2
ag3
aF82.2838
aI387
aI2372
aa(lp100
g2
ag3
aF82.5754
aI390
aI2372
aa(lp101
g2
ag3
aF82.8803
aI396
aI2372
aa(lp102
g2
ag3
aF83.1692
aI399
aI2372
aa(lp103
S'qs'
p104
ag3
aF8.48159
aI10
aI60
aa(lp105
g104
ag3
aF13.3518
aI20
aI753
aa(lp106
g104
ag3
aF17.7103
aI30
aI753
aa(lp107
g104
ag3
aF22.8623
aI40
aI784
aa(lp108
g104
ag3
aF27.2383
aI50
aI784
aa(lp109
g104
ag3
aF31.5931
aI60
aI784
aa(lp110
g104
ag3
aF36.5054
aI70
aI875
aa(lp111
g104
ag3
aF40.8772
aI80
aI875
aa(lp112
g104
ag3
aF45.245
aI90
aI875
aa(lp113
g104
ag3
aF49.6091
aI100
aI875
aa(lp114
g104
ag3
aF54.696
aI110
aI875
aa(lp115
g104
ag3
aF59.0447
aI120
aI875
aa(lp116
g104
ag3
aF63.91
aI130
aI884
aa(lp117
g104
ag3
aF68.5704
aI140
aI884
aa(lp118
g104
ag3
aF72.9254
aI150
aI884
aa(lp119
g104
ag3
aF77.2838
aI160
aI884
aa(lp120
g104
ag3
aF81.6449
aI170
aI884
aa(lp121
g104
ag3
aF86.2925
aI180
aI884
aa(lp122
g104
ag3
aF90.6447
aI190
aI884
aa(lp123
g104
ag3
aF95.0073
aI200
aI884
aa(lp124
g104
ag3
aF99.3716
aI210
aI884
aa(lp125
g104
ag3
aF103.719
aI220
aI884
aa(lp126
g104
ag3
aF108.064
aI230
aI884
aa(lp127
g104
ag3
aF112.411
aI240
aI884
aa(lp128
g104
ag3
aF116.498
aI248
aI886
aa(lp129
g104
ag3
aF117.205
aI248
aI886
aa(lp130
g104
ag3
aF117.911
aI248
aI886
aa(lp131
g104
ag3
aF119.709
aI251
aI886
aa(lp132
g104
ag3
aF121.509
aI254
aI886
aa(lp133
g104
ag3
aF124.04
aI259
aI886
aa(lp134
g104
ag3
aF125.48
aI261
aI886
aa(lp135
g104
ag3
aF127.643
aI265
aI886
aa(lp136
g104
ag3
aF129.447
aI268
aI886
aa(lp137
g104
ag3
aF131.614
aI272
aI886
aa(lp138
g104
ag3
aF134.151
aI277
aI886
aa(lp139
g104
ag3
aF136.678
aI282
aI886
aa(lp140
g104
ag3
aF139.583
aI288
aI886
aa(lp141
g104
ag3
aF142.116
aI293
aI886
aa(lp142
g104
ag3
aF144.525
aI297
aI886
aa(lp143
g104
ag3
aF146.702
aI301
aI886
aa(lp144
g104
ag3
aF147.778
aI302
aI886
aa(lp145
g104
ag3
aF149.585
aI305
aI886
aa(lp146
g104
ag3
aF151.022
aI307
aI886
aa(lp147
g104
ag3
aF151.728
aI307
aI886
aa(lp148
g104
ag3
aF153.176
aI309
aI886
aa(lp149
g104
ag3
aF153.876
aI309
aI886
aa(lp150
g104
ag3
aF156.217
aI312
aI890
aa(lp151
g104
ag3
aF158.394
aI316
aI890
aa(lp152
g104
ag3
aF160.573
aI320
aI890
aa(lp153
g104
ag3
aF162.768
aI324
aI890
aa(lp154
g104
ag3
aF164.259
aI326
aI1253
aa(lp155
g104
ag3
aF165.729
aI328
aI1253
aa(lp156
g104
ag3
aF167.554
aI331
aI1253
aa(lp157
g104
ag3
aF170.839
aI338
aI1253
aa(lp158
g104
ag3
aF173.39
aI343
aI1253
aa(lp159
g104
ag3
aF176.346
aI349
aI1253
aa(lp160
g104
ag3
aF178.169
aI352
aI1253
aa(lp161
g104
ag3
aF181.086
aI358
aI1253
aa(lp162
g104
ag3
aF185.087
aI367
aI1253
aa(lp163
g104
ag3
aF187.639
aI372
aI1253
aa(lp164
g104
ag3
aF191.103
aI379
aI1253
aa(lp165
g104
ag3
aF194.023
aI385
aI1253
aa(lp166
g104
ag3
aF196.942
aI391
aI1253
aa(lp167
g104
ag3
aF199.137
aI395
aI1253
aa(lp168
g104
ag3
aF202.064
aI401
aI1253
aa(lp169
g104
ag3
aF204.981
aI407
aI1253
aa(lp170
g104
ag3
aF207.629
aI412
aI1253
aa(lp171
g104
ag3
aF210.552
aI418
aI1253
aa(lp172
g104
ag3
aF213.823
aI425
aI1253
aa(lp173
g104
ag3
aF217.108
aI432
aI1253
aa(lp174
g104
ag3
aF220.388
aI439
aI1253
aa(lp175
g104
ag3
aF223.231
aI444
aI1253
aa(lp176
g104
ag3
aF225.056
aI447
aI1253
aa(lp177
g104
ag3
aF226.886
aI450
aI1253
aa(lp178
g104
ag3
aF227.991
aI451
aI1253
aa(lp179
g104
ag3
aF229.101
aI452
aI1253
aa(lp180
g104
ag3
aF231.282
aI456
aI1253
aa(lp181
g104
ag3
aF233.824
aI461
aI1253
aa(lp182
g104
ag3
aF236.013
aI465
aI1253
aa(lp183
g104
ag3
aF238.558
aI470
aI1253
aa(lp184
g104
ag3
aF240.388
aI473
aI1253
aa(lp185
g104
ag3
aF242.569
aI477
aI1253
aa(lp186
g104
ag3
aF244.385
aI480
aI1253
aa(lp187
g104
ag3
aF246.204
aI483
aI1253
aa(lp188
g104
ag3
aF249.568
aI489
aI1258
aa(lp189
g104
ag3
aF254.1
aI499
aI1260
aa(lp190
g104
ag3
aF258.484
aI509
aI1260
aa(lp191
g104
ag3
aF262.846
aI519
aI1260
aa(lp192
g104
ag3
aF267.196
aI529
aI1260
aa(lp193
g104
ag3
aF271.555
aI539
aI1260
aa(lp194
g104
ag3
aF275.909
aI549
aI1260
aa(lp195
g104
ag3
aF280.277
aI559
aI1260
aa(lp196
g104
ag3
aF284.891
aI569
aI1260
aa(lp197
g104
ag3
aF289.239
aI579
aI1260
aa(lp198
g104
ag3
aF293.602
aI589
aI1260
aa(lp199
g104
ag3
aF297.991
aI599
aI1260
aa(lp200
g104
ag3
aF302.355
aI609
aI1260
aa(lp201
g104
ag3
aF306.712
aI619
aI1260
aa(lp202
g104
ag3
aF311.181
aI629
aI1260
aa(lp203
g104
ag3
aF315.605
aI639
aI1260
aa(lp204
g104
ag3
aF319.97
aI649
aI1260
aa(lp205
g104
ag3
aF324.326
aI659
aI1260
aa(lp206
g104
ag3
aF328.68
aI669
aI1260
aa(lp207
g104
ag3
aF333.027
aI679
aI1260
aa(lp208
g104
ag3
aF337.386
aI689
aI1260
aa(lp209
g104
ag3
aF341.75
aI699
aI1260
aa(lp210
g104
ag3
aF346.592
aI709
aI1269
aa(lp211
g104
ag3
aF350.947
aI719
aI1271
aa(lp212
g104
ag3
aF355.297
aI729
aI1271
aa(lp213
g104
ag3
aF359.856
aI739
aI1271
aa(lp214
g104
ag3
aF364.259
aI749
aI1271
aa(lp215
g104
ag3
aF368.611
aI759
aI1271
aa(lp216
g104
ag3
aF373.077
aI769
aI1271
aa(lp217
g104
ag3
aF377.676
aI779
aI1271
aa(lp218
g104
ag3
aF382.057
aI789
aI1271
aa(lp219
g104
ag3
aF386.412
aI799
aI1271
aa(lp220
g104
ag3
aF390.766
aI809
aI1273
aa(lp221
g104
ag3
aF395.125
aI819
aI1275
aa(lp222
g104
ag3
aF399.491
aI829
aI1275
aa(lp223
g104
ag3
aF403.847
aI839
aI1275
aa(lp224
g104
ag3
aF408.211
aI849
aI1275
aa(lp225
g104
ag3
aF412.569
aI859
aI1275
aa(lp226
g104
ag3
aF416.918
aI869
aI1275
aa(lp227
g104
ag3
aF421.705
aI879
aI1275
aa(lp228
g104
ag3
aF426.055
aI889
aI1275
aa(lp229
g104
ag3
aF430.409
aI899
aI1275
aa(lp230
g104
ag3
aF434.766
aI909
aI1275
aa(lp231
g104
ag3
aF439.121
aI919
aI1275
aa(lp232
g104
ag3
aF443.477
aI929
aI1275
aa(lp233
g104
ag3
aF447.822
aI939
aI1275
aa(lp234
g104
ag3
aF452.18
aI949
aI1275
aa(lp235
g104
ag3
aF456.527
aI959
aI1275
aa(lp236
g104
ag3
aF460.891
aI969
aI1275
aa(lp237
g104
ag3
aF465.243
aI979
aI1275
aa(lp238
g104
ag3
aF469.788
aI989
aI1275
aa(lp239
g104
ag3
aF474.151
aI999
aI1275
aa(lp240
g104
ag3
aF478.509
aI1009
aI1275
aa(lp241
g104
ag3
aF482.86
aI1019
aI1275
aa(lp242
g104
ag3
aF487.251
aI1029
aI1275
aa(lp243
g104
ag3
aF491.894
aI1039
aI1275
aa(lp244
g104
ag3
aF496.274
aI1049
aI1275
aa(lp245
g104
ag3
aF500.641
aI1059
aI1275
aa(lp246
g104
ag3
aF504.986
aI1069
aI1275
aa(lp247
g104
ag3
aF509.348
aI1079
aI1275
aa(lp248
g104
ag3
aF514.17
aI1089
aI1279
aa(lp249
g104
ag3
aF516.531
aI1093
aI1282
aa(lp250
g104
ag3
aF519.565
aI1099
aI1305
aa(lp251
g104
ag3
aF522.936
aI1106
aI1306
aa(lp252
g104
ag3
aF525.631
aI1111
aI1306
aa(lp253
g104
ag3
aF528.69
aI1117
aI1306
aa(lp254
g104
ag3
aF530.395
aI1119
aI1306
aa(lp255
g104
ag3
aF533.092
aI1124
aI1306
aa(lp256
g104
ag3
aF536.119
aI1130
aI1306
aa(lp257
g104
ag3
aF538.818
aI1135
aI1306
aa(lp258
g104
ag3
aF541.846
aI1141
aI1306
aa(lp259
g104
ag3
aF545.955
aI1150
aI1306
aa(lp260
g104
ag3
aF549.641
aI1158
aI1306
aa(lp261
g104
ag3
aF553.002
aI1165
aI1306
aa(lp262
g104
ag3
aF556.687
aI1173
aI1312
aa(lp263
g104
ag3
aF561.166
aI1183
aI1313
aa(lp264
g104
ag3
aF565.522
aI1193
aI1313
aa(lp265
g104
ag3
aF569.542
aI1202
aI1313
aa(lp266
g104
ag3
aF573.236
aI1210
aI1313
aa(lp267
g104
ag3
aF576.933
aI1218
aI1313
aa(lp268
g104
ag3
aF581.302
aI1228
aI1313
aa(lp269
g104
ag3
aF585.662
aI1238
aI1313
aa(lp270
g104
ag3
aF589.425
aI1246
aI1313
aa(lp271
g104
ag3
aF593.776
aI1256
aI1313
aa(lp272
g104
ag3
aF597.466
aI1264
aI1313
aa(lp273
g104
ag3
aF601.828
aI1274
aI1313
aa(lp274
g104
ag3
aF605.877
aI1283
aI1316
aa(lp275
g104
ag3
aF609.575
aI1291
aI1317
aa(lp276
g104
ag3
aF613.605
aI1300
aI1317
aa(lp277
g104
ag3
aF617.301
aI1308
aI1317
aa(lp278
g104
ag3
aF621.658
aI1318
aI1317
aa(lp279
g104
ag3
aF626.02
aI1328
aI1317
aa(lp280
g104
ag3
aF630.375
aI1338
aI1317
aa(lp281
g104
ag3
aF634.083
aI1346
aI1317
aa(lp282
g104
ag3
aF637.111
aI1352
aI1317
aa(lp283
g104
ag3
aF641.133
aI1361
aI1317
aa(lp284
g104
ag3
aF645.162
aI1370
aI1317
aa(lp285
g104
ag3
aF649.639
aI1380
aI1317
aa(lp286
g104
ag3
aF652.675
aI1386
aI1317
aa(lp287
g104
ag3
aF656.373
aI1394
aI1317
aa(lp288
g104
ag3
aF660.738
aI1404
aI1317
aa(lp289
g104
ag3
aF664.771
aI1413
aI1317
aa(lp290
g104
ag3
aF669.135
aI1423
aI1317
aa(lp291
g104
ag3
aF673.486
aI1433
aI1317
aa(lp292
g104
ag3
aF677.846
aI1443
aI1317
aa(lp293
g104
ag3
aF681.539
aI1451
aI1317
aa(lp294
g104
ag3
aF685.579
aI1460
aI1317
aa(lp295
g104
ag3
aF689.793
aI1469
aI1317
aa(lp296
g104
ag3
aF693.486
aI1477
aI1317
aa(lp297
g104
ag3
aF697.519
aI1486
aI1317
aa(lp298
g104
ag3
aF701.542
aI1495
aI1317
aa(lp299
g104
ag3
aF705.57
aI1504
aI1317
aa(lp300
g104
ag3
aF709.95
aI1514
aI1317
aa(lp301
g104
ag3
aF713.656
aI1522
aI1317
aa(lp302
g104
ag3
aF717.676
aI1531
aI1317
aa(lp303
g104
ag3
aF720.708
aI1537
aI1317
aa(lp304
g104
ag3
aF725.06
aI1547
aI1317
aa(lp305
g104
ag3
aF729.087
aI1556
aI1317
aa(lp306
g104
ag3
aF733.434
aI1566
aI1317
aa(lp307
g104
ag3
aF737.127
aI1574
aI1317
aa(lp308
g104
ag3
aF741.487
aI1584
aI1317
aa(lp309
g104
ag3
aF745.511
aI1593
aI1317
aa(lp310
g104
ag3
aF749.864
aI1603
aI1317
aa(lp311
g104
ag3
aF754.065
aI1612
aI1317
aa(lp312
g104
ag3
aF758.854
aI1621
aI1317
aa(lp313
g104
ag3
aF762.884
aI1630
aI1317
aa(lp314
g104
ag3
aF766.915
aI1639
aI1317
aa(lp315
g104
ag3
aF770.946
aI1648
aI1317
aa(lp316
g104
ag3
aF774.967
aI1657
aI1317
aa(lp317
g104
ag3
aF778.993
aI1666
aI1317
aa(lp318
g104
ag3
aF782.68
aI1674
aI1317
aa(lp319
g104
ag3
aF786.046
aI1681
aI1317
aa(lp320
g104
ag3
aF789.404
aI1688
aI1317
aa(lp321
g104
ag3
aF793.044
aI1696
aI1317
aa(lp322
g104
ag3
aF795.954
aI1702
aI1317
aa(lp323
g104
ag3
aF798.87
aI1708
aI1317
aa(lp324
g104
ag3
aF801.418
aI1713
aI1317
aa(lp325
g104
ag3
aF804.693
aI1720
aI1317
aa(lp326
g104
ag3
aF807.295
aI1725
aI1317
aa(lp327
g104
ag3
aF809.506
aI1729
aI1317
aa(lp328
g104
ag3
aF812.479
aI1735
aI1317
aa(lp329
g104
ag3
aF815.462
aI1741
aI1317
aa(lp330
g104
ag3
aF819.52
aI1750
aI1317
aa(lp331
g104
ag3
aF823.198
aI1758
aI1317
aa(lp332
g104
ag3
aF825.779
aI1763
aI1317
aa(lp333
g104
ag3
aF829.094
aI1770
aI1317
aa(lp334
g104
ag3
aF832.033
aI1776
aI1317
aa(lp335
g104
ag3
aF835.08
aI1782
aI1317
aa(lp336
g104
ag3
aF837.322
aI1786
aI1317
aa(lp337
g104
ag3
aF841.006
aI1794
aI1317
aa(lp338
g104
ag3
aF844.718
aI1802
aI1317
aa(lp339
g104
ag3
aF847.667
aI1808
aI1317
aa(lp340
g104
ag3
aF850.983
aI1815
aI1317
aa(lp341
g104
ag3
aF855.4
aI1825
aI1317
aa(lp342
g104
ag3
aF859.082
aI1833
aI1317
aa(lp343
g104
ag3
aF862.385
aI1840
aI1317
aa(lp344
g104
ag3
aF866.07
aI1848
aI1317
aa(lp345
g104
ag3
aF869.493
aI1855
aI1317
aa(lp346
g104
ag3
aF873.869
aI1865
aI1317
aa(lp347
g104
ag3
aF877.536
aI1873
aI1317
aa(lp348
g104
ag3
aF881.532
aI1882
aI1317
aa(lp349
g104
ag3
aF885.537
aI1891
aI1317
aa(lp350
g104
ag3
aF889.535
aI1900
aI1317
aa(lp351
g104
ag3
aF893.532
aI1909
aI1317
aa(lp352
g104
ag3
aF896.442
aI1915
aI1317
aa(lp353
g104
ag3
aF899.744
aI1922
aI1317
aa(lp354
g104
ag3
aF903.017
aI1929
aI1317
aa(lp355
g104
ag3
aF906.675
aI1937
aI1317
aa(lp356
g104
ag3
aF909.255
aI1942
aI1317
aa(lp357
g104
ag3
aF912.885
aI1950
aI1317
aa(lp358
g104
ag3
aF917.24
aI1960
aI1317
aa(lp359
g104
ag3
aF921.603
aI1970
aI1317
aa(lp360
g104
ag3
aF925.62
aI1979
aI1317
aa(lp361
g104
ag3
aF928.194
aI1984
aI1317
aa(lp362
g104
ag3
aF931.091
aI1990
aI1317
aa(lp363
g104
ag3
aF934.726
aI1998
aI1317
aa(lp364
g104
ag3
aF938.354
aI2006
aI1317
aa(lp365
g104
ag3
aF942.347
aI2015
aI1317
aa(lp366
g104
ag3
aF945.249
aI2021
aI1317
aa(lp367
g104
ag3
aF949.597
aI2031
aI1317
aa(lp368
g104
ag3
aF951.804
aI2035
aI1317
aa(lp369
g104
ag3
aF955.807
aI2044
aI1317
aa(lp370
g104
ag3
aF959.066
aI2051
aI1317
aa(lp371
g104
ag3
aF962.696
aI2059
aI1317
aa(lp372
g104
ag3
aF967.068
aI2069
aI1317
aa(lp373
g104
ag3
aF971.058
aI2078
aI1317
aa(lp374
g104
ag3
aF975.417
aI2088
aI1317
aa(lp375
g104
ag3
aF979.771
aI2098
aI1317
aa(lp376
g104
ag3
aF984.135
aI2108
aI1317
aa(lp377
g104
ag3
aF987.4
aI2115
aI1317
aa(lp378
g104
ag3
aF991.778
aI2125
aI1317
aa(lp379
g104
ag3
aF996.143
aI2135
aI1317
aa(lp380
g104
ag3
aF999.786
aI2143
aI1317
aa(lp381
g104
ag3
aF1004.15
aI2153
aI1317
aa(lp382
g104
ag3
aF1008.5
aI2163
aI1317
aa(lp383
g104
ag3
aF1012.49
aI2172
aI1317
aa(lp384
g104
ag3
aF1016.13
aI2180
aI1317
aa(lp385
g104
ag3
aF1020.47
aI2190
aI1317
aa(lp386
g104
ag3
aF1024.47
aI2199
aI1317
aa(lp387
g104
ag3
aF1028.47
aI2208
aI1317
aa(lp388
g104
ag3
aF1032.82
aI2218
aI1317
aa(lp389
g104
ag3
aF1036.83
aI2227
aI1317
aa(lp390
g104
ag3
aF1041.18
aI2237
aI1317
aa(lp391
g104
ag3
aF1044.87
aI2245
aI1317
aa(lp392
g104
ag3
aF1049.23
aI2255
aI1317
aa(lp393
g104
ag3
aF1052.94
aI2263
aI1317
aa(lp394
g104
ag3
aF1056.24
aI2270
aI1317
aa(lp395
g104
ag3
aF1060.27
aI2279
aI1317
aa(lp396
g104
ag3
aF1063.93
aI2287
aI1317
aa(lp397
g104
ag3
aF1067.24
aI2294
aI1317
aa(lp398
g104
ag3
aF1070.55
aI2301
aI1317
aa(lp399
g104
ag3
aF1074.58
aI2310
aI1317
aa(lp400
g104
ag3
aF1078.25
aI2318
aI1317
aa(lp401
g104
ag3
aF1082.27
aI2327
aI1317
aa(lp402
g104
ag3
aF1091.12
aI2334
aI2552
aa(lp403
g104
ag3
aF1094.57
aI2344
aI2552
aa(lp404
g104
ag3
aF1098.01
aI2354
aI2599
aa(lp405
g104
ag3
aF1101.18
aI2363
aI2599
aa(lp406
g104
ag3
aF1104.38
aI2372
aI2599
aa(lp407
g104
ag3
aF1107.27
aI2380
aI2599
aa(lp408
g104
ag3
aF1110.19
aI2388
aI2656
aa(lp409
g104
ag3
aF1113.09
aI2396
aI2656
aa(lp410
g104
ag3
aF1115.44
aI2402
aI2656
aa(lp411
g104
ag3
aF1118.64
aI2411
aI2656
aa(lp412
g104
ag3
aF1121.82
aI2420
aI2656
aa(lp413
g104
ag3
aF1124.49
aI2427
aI2656
aa(lp414
g104
ag3
aF1126.87
aI2433
aI2656
aa(lp415
g104
ag3
aF1130.97
aI2442
aI2656
aa(lp416
g104
ag3
aF1134.14
aI2451
aI2656
aa(lp417
g104
ag3
aF1136.77
aI2458
aI2656
aa(lp418
g104
ag3
aF1139.69
aI2466
aI2656
aa(lp419
g104
ag3
aF1142.88
aI2475
aI2656
aa(lp420
g104
ag3
aF1145.78
aI2483
aI2656
aa(lp421
g104
ag3
aF1149.23
aI2493
aI2656
aa(lp422
g104
ag3
aF1152.13
aI2501
aI2656
aa(lp423
g104
ag3
aF1154.5
aI2507
aI2656
aa(lp424
g104
ag3
aF1157.46
aI2515
aI2656
aa(lp425
g104
ag3
aF1160.9
aI2525
aI2656
aa(lp426
g104
ag3
aF1164.07
aI2534
aI2656
aa(lp427
g104
ag3
aF1167.25
aI2543
aI2656
aa(lp428
g104
ag3
aF1170.17
aI2551
aI2656
aa(lp429
g104
ag3
aF1173.36
aI2560
aI2656
aa(lp430
g104
ag3
aF1176.54
aI2569
aI2656
aa(lp431
g104
ag3
aF1179.45
aI2577
aI2656
aa(lp432
g104
ag3
aF1182.66
aI2586
aI2656
aa(lp433
g104
ag3
aF1185.32
aI2593
aI2656
aa(lp434
g104
ag3
aF1188.52
aI2602
aI3053
aa(lp435
g104
ag3
aF1191.72
aI2611
aI3053
aa(lp436
g104
ag3
aF1194.93
aI2620
aI3053
aa(lp437
g104
ag3
aF1198.15
aI2629
aI3053
aa(lp438
g104
ag3
aF1201.61
aI2639
aI3053
aa(lp439
g104
ag3
aF1204.57
aI2647
aI3053
aa(lp440
g104
ag3
aF1207.52
aI2655
aI3053
aa(lp441
g104
ag3
aF1210.96
aI2665
aI3053
aa(lp442
g104
ag3
aF1213.9
aI2673
aI3053
aa(lp443
g104
ag3
aF1216.86
aI2681
aI3053
aa(lp444
g104
ag3
aF1219.55
aI2688
aI3053
aa(lp445
g104
ag3
aF1222.76
aI2697
aI3053
aa(lp446
g104
ag3
aF1225.73
aI2705
aI3053
aa(lp447
g104
ag3
aF1228.21
aI2711
aI3053
aa(lp448
g104
ag3
aF1231.38
aI2720
aI3053
aa(lp449
g104
ag3
aF1234.3
aI2728
aI3053
aa(lp450
g104
ag3
aF1237.47
aI2737
aI3053
aa(lp451
g104
ag3
aF1239.61
aI2742
aI3053
aa(lp452
g104
ag3
aF1242.53
aI2750
aI3053
aa(lp453
g104
ag3
aF1244.9
aI2756
aI3053
aa(lp454
g104
ag3
aF1247.8
aI2764
aI3067
aa(lp455
g104
ag3
aF1249.63
aI2768
aI3067
aa(lp456
g104
ag3
aF1252.53
aI2776
aI3067
aa(lp457
g104
ag3
aF1254.9
aI2782
aI3067
aa(lp458
g104
ag3
aF1257.53
aI2789
aI3067
aa(lp459
g104
ag3
aF1259.89
aI2795
aI3067
aa(lp460
g104
ag3
aF1262.53
aI2802
aI3067
aa(lp461
g104
ag3
aF1265.16
aI2809
aI3067
aa(lp462
g104
ag3
aF1267.51
aI2815
aI3067
aa(lp463
g104
ag3
aF1269.88
aI2821
aI3067
aa(lp464
g104
ag3
aF1272.27
aI2827
aI3067
aa(lp465
g104
ag3
aF1274.66
aI2833
aI3067
aa(lp466
g104
ag3
aF1277.57
aI2841
aI3067
aa(lp467
g104
ag3
aF1280.74
aI2850
aI3067
aa(lp468
g104
ag3
aF1283.93
aI2859
aI3067
aa(lp469
g104
ag3
aF1287.11
aI2868
aI3067
aa(lp470
g104
ag3
aF1289.2
aI2873
aI3067
aa(lp471
g104
ag3
aF1291.83
aI2880
aI3067
aa(lp472
g104
ag3
aF1294.2
aI2886
aI3067
aa(lp473
g104
ag3
aF1297.38
aI2895
aI3067
aa(lp474
g104
ag3
aF1300.04
aI2902
aI3067
aa(lp475
g104
ag3
aF1302.4
aI2908
aI3067
aa(lp476
g104
ag3
aF1305.03
aI2915
aI3067
aa(lp477
g104
ag3
aF1306.88
aI2919
aI3067
aa(lp478
g104
ag3
aF1308.99
aI2924
aI3067
aa(lp479
g104
ag3
aF1311.62
aI2931
aI3067
aa(lp480
g104
ag3
aF1314.83
aI2940
aI3067
aa(lp481
g104
ag3
aF1317.92
aI2948
aI3067
aa(lp482
g104
ag3
aF1320.27
aI2954
aI3067
aa(lp483
g104
ag3
aF1322.67
aI2960
aI3067
aa(lp484
g104
ag3
aF1325.84
aI2969
aI3067
aa(lp485
g104
ag3
aF1328.75
aI2977
aI3067
aa(lp486
g104
ag3
aF1332.2
aI2987
aI3067
aa(lp487
g104
ag3
aF1335.11
aI2995
aI3067
aa(lp488
g104
ag3
aF1338.03
aI3003
aI3067
aa(lp489
g104
ag3
aF1341.21
aI3012
aI3067
aa(lp490
g104
ag3
aF1344.11
aI3020
aI3067
aa(lp491
g104
ag3
aF1347.29
aI3029
aI3067
aa(lp492
g104
ag3
aF1350.47
aI3038
aI3067
aa(lp493
g104
ag3
aF1353.64
aI3047
aI3067
aa(lp494
g104
ag3
aF1356.58
aI3055
aI3067
aa(lp495
g104
ag3
aF1358.97
aI3061
aI3067
aa(lp496
g104
ag3
aF1362.15
aI3070
aI3067
aa(lp497
g104
ag3
aF1365.35
aI3079
aI3067
aa(lp498
g104
ag3
aF1368.02
aI3086
aI3067
aa(lp499
g104
ag3
aF1370.92
aI3094
aI3067
aa(lp500
g104
ag3
aF1374.1
aI3103
aI3067
aa(lp501
g104
ag3
aF1377.28
aI3112
aI3067
aa(lp502
g104
ag3
aF1379.95
aI3119
aI3067
aa(lp503
g104
ag3
aF1383.42
aI3129
aI3067
aa(lp504
g104
ag3
aF1386.33
aI3137
aI3067
aa(lp505
g104
ag3
aF1389.8
aI3147
aI3067
aa(lp506
g104
ag3
aF1392.7
aI3155
aI3067
aa(lp507
g104
ag3
aF1395.91
aI3164
aI3067
aa(lp508
g104
ag3
aF1398.81
aI3172
aI3067
aa(lp509
g104
ag3
aF1400.92
aI3177
aI3067
aa(lp510
g104
ag3
aF1403.83
aI3185
aI3067
aa(lp511
g104
ag3
aF1405.94
aI3190
aI3067
aa(lp512
g104
ag3
aF1408.83
aI3198
aI3067
aa(lp513
g104
ag3
aF1411.73
aI3206
aI3067
aa(lp514
g104
ag3
aF1415.18
aI3216
aI3067
aa(lp515
g104
ag3
aF1418.13
aI3224
aI3067
aa(lp516
g104
ag3
aF1420.75
aI3231
aI3067
aa(lp517
g104
ag3
aF1422.91
aI3236
aI3067
aa(lp518
g104
ag3
aF1426.09
aI3245
aI3067
aa(lp519
g104
ag3
aF1428.99
aI3253
aI3067
aa(lp520
g104
ag3
aF1431.89
aI3261
aI3067
aa(lp521
g104
ag3
aF1435.34
aI3271
aI3067
aa(lp522
g104
ag3
aF1438.51
aI3280
aI3067
aa(lp523
g104
ag3
aF1441.73
aI3289
aI3067
aa(lp524
g104
ag3
aF1444.91
aI3298
aI3067
aa(lp525
g104
ag3
aF1447.27
aI3304
aI3067
aa(lp526
g104
ag3
aF1449.66
aI3310
aI3067
aa(lp527
g104
ag3
aF1452.3
aI3317
aI3067
aa(lp528
g104
ag3
aF1454.66
aI3323
aI3067
aa(lp529
g104
ag3
aF1457.55
aI3331
aI3067
aa(lp530
g104
ag3
aF1460.18
aI3338
aI3067
aa(lp531
g104
ag3
aF1463.11
aI3346
aI3067
aa(lp532
g104
ag3
aF1466.02
aI3354
aI3067
aa(lp533
g104
ag3
aF1468.92
aI3362
aI3067
aa(lp534
g104
ag3
aF1472.09
aI3371
aI3067
aa(lp535
g104
ag3
aF1474.18
aI3376
aI3067
aa(lp536
g104
ag3
aF1476.83
aI3383
aI3067
aa(lp537
g104
ag3
aF1480.01
aI3392
aI3067
aa(lp538
g104
ag3
aF1482.91
aI3400
aI3067
aa(lp539
g104
ag3
aF1485.3
aI3406
aI3067
aa(lp540
g104
ag3
aF1488.47
aI3415
aI3067
aa(lp541
g104
ag3
aF1491.11
aI3422
aI3067
aa(lp542
g104
ag3
aF1494.01
aI3430
aI3067
aa(lp543
g104
ag3
aF1496.14
aI3435
aI3067
aa(lp544
g104
ag3
aF1499.05
aI3443
aI3067
aa(lp545
g104
ag3
aF1503.02
aI3453
aI3067
aa(lp546
g104
ag3
aF1506.47
aI3463
aI3067
aa(lp547
g104
ag3
aF1509.91
aI3473
aI3067
aa(lp548
g104
ag3
aF1513.09
aI3482
aI3067
aa(lp549
g104
ag3
aF1516.53
aI3492
aI3067
aa(lp550
g104
ag3
aF1519.98
aI3502
aI3067
aa(lp551
g104
ag3
aF1523.42
aI3512
aI3067
aa(lp552
g104
ag3
aF1526.87
aI3522
aI3067
aa(lp553
g104
ag3
aF1530.08
aI3531
aI3067
aa(lp554
g104
ag3
aF1533.26
aI3540
aI3067
aa(lp555
g104
ag3
aF1535.89
aI3547
aI3067
aa(lp556
g104
ag3
aF1538.79
aI3555
aI3067
aa(lp557
g104
ag3
aF1542.23
aI3565
aI3067
aa(lp558
g104
ag3
aF1545.69
aI3575
aI3067
aa(lp559
g104
ag3
aF1548.87
aI3584
aI3067
aa(lp560
g104
ag3
aF1552.04
aI3593
aI3067
aa(lp561
g104
ag3
aF1555.22
aI3602
aI3067
aa(lp562
g104
ag3
aF1558.66
aI3612
aI3067
aa(lp563
g104
ag3
aF1562.09
aI3622
aI3067
aa(lp564
g104
ag3
aF1565.0
aI3630
aI3067
aa(lp565
g104
ag3
aF1568.45
aI3640
aI3067
aa(lp566
g104
ag3
aF1571.62
aI3649
aI3067
aa(lp567
g104
ag3
aF1574.52
aI3657
aI3067
aa(lp568
g104
ag3
aF1577.42
aI3665
aI3067
aa(lp569
g104
ag3
aF1580.87
aI3675
aI3067
aa(lp570
g104
ag3
aF1583.5
aI3682
aI3067
aa(lp571
g104
ag3
aF1586.68
aI3691
aI3067
aa(lp572
g104
ag3
aF1590.13
aI3701
aI3067
aa(lp573
g104
ag3
aF1593.03
aI3709
aI3067
aa(lp574
g104
ag3
aF1596.21
aI3718
aI3067
aa(lp575
g104
ag3
aF1599.65
aI3728
aI3067
aa(lp576
g104
ag3
aF1603.09
aI3738
aI3067
aa(lp577
g104
ag3
aF1606.27
aI3747
aI3067
aa(lp578
g104
ag3
aF1609.17
aI3755
aI3067
aa(lp579
g104
ag3
aF1612.62
aI3765
aI3067
aa(lp580
g104
ag3
aF1615.82
aI3774
aI3067
aa(lp581
g104
ag3
aF1618.78
aI3782
aI3067
aa(lp582
g104
ag3
aF1621.96
aI3791
aI3067
aa(lp583
g104
ag3
aF1625.41
aI3801
aI3067
aa(lp584
g104
ag3
aF1628.11
aI3808
aI3067
aa(lp585
g104
ag3
aF1631.05
aI3816
aI3067
aa(lp586
g104
ag3
aF1634.23
aI3825
aI3067
aa(lp587
g104
ag3
aF1637.69
aI3835
aI3067
aa(lp588
g104
ag3
aF1640.61
aI3843
aI3067
aa(lp589
g104
ag3
aF1644.06
aI3853
aI3067
aa(lp590
g104
ag3
aF1647.02
aI3861
aI3067
aa(lp591
g104
ag3
aF1649.72
aI3868
aI3067
aa(lp592
g104
ag3
aF1652.91
aI3877
aI3067
aa(lp593
g104
ag3
aF1655.85
aI3885
aI3067
aa(lp594
g104
ag3
aF1658.76
aI3893
aI3067
aa(lp595
g104
ag3
aF1661.73
aI3901
aI3067
aa(lp596
g104
ag3
aF1664.93
aI3910
aI3067
aa(lp597
g104
ag3
aF1668.18
aI3919
aI3067
aa(lp598
g104
ag3
aF1671.4
aI3928
aI3067
aa(lp599
g104
ag3
aF1674.86
aI3938
aI3067
aa(lp600
g104
ag3
aF1677.6
aI3945
aI3067
aa(lp601
g104
ag3
aF1682.29
aI3954
aI3148
aa(lp602
g104
ag3
aF1685.2
aI3962
aI3148
aa(lp603
g104
ag3
aF1688.12
aI3970
aI3148
aa(lp604
g104
ag3
aF1691.31
aI3979
aI3148
aa(lp605
g104
ag3
aF1693.95
aI3986
aI3148
aa(lp606
g104
ag3
aF1696.6
aI3993
aI3148
aa(lp607
g104
ag3
aF1699.79
aI4002
aI3148
aa(lp608
g104
ag3
aF1702.44
aI4009
aI3148
aa(lp609
g104
ag3
aF1705.63
aI4018
aI3148
aa(lp610
g104
ag3
aF1708.03
aI4024
aI3148
aa(lp611
g104
ag3
aF1710.13
aI4029
aI3148
aa(lp612
g104
ag3
aF1713.33
aI4038
aI3148
aa(lp613
g104
ag3
aF1716.8
aI4048
aI3148
aa(lp614
g104
ag3
aF1720.26
aI4058
aI3148
aa(lp615
g104
ag3
aF1723.48
aI4067
aI3148
aa(lp616
g104
ag3
aF1726.68
aI4076
aI3148
aa(lp617
g104
ag3
aF1729.35
aI4083
aI3148
aa(lp618
g104
ag3
aF1732.27
aI4091
aI3148
aa(lp619
g104
ag3
aF1735.47
aI4100
aI3148
aa(lp620
g104
ag3
aF1737.84
aI4106
aI3148
aa(lp621
g104
ag3
aF1741.03
aI4115
aI3148
aa(lp622
g104
ag3
aF1743.96
aI4123
aI3148
aa(lp623
g104
ag3
aF1747.16
aI4132
aI3148
aa(lp624
g104
ag3
aF1750.63
aI4142
aI3148
aa(lp625
g104
ag3
aF1753.57
aI4150
aI3148
aa(lp626
g104
ag3
aF1756.79
aI4159
aI3148
aa(lp627
g104
ag3
aF1759.44
aI4166
aI3148
aa(lp628
g104
ag3
aF1762.63
aI4175
aI3148
aa(lp629
g104
ag3
aF1765.58
aI4183
aI3148
aa(lp630
g104
ag3
aF1768.79
aI4192
aI3148
aa(lp631
g104
ag3
aF1772.25
aI4202
aI3148
aa(lp632
g104
ag3
aF1775.17
aI4210
aI3148
aa(lp633
g104
ag3
aF1778.1
aI4218
aI3148
aa(lp634
g104
ag3
aF1781.33
aI4227
aI3148
aa(lp635
g104
ag3
aF1784.29
aI4235
aI3148
aa(lp636
g104
ag3
aF1787.49
aI4244
aI3148
aa(lp637
g104
ag3
aF1790.49
aI4252
aI3148
aa(lp638
g104
ag3
aF1793.39
aI4260
aI3148
aa(lp639
g104
ag3
aF1796.22
aI4266
aI3244
aa(lp640
g104
ag3
aF1800.7
aI4276
aI3244
aa(lp641
g104
ag3
aF1804.75
aI4284
aI3244
aa(lp642
g104
ag3
aF1809.52
aI4294
aI3244
aa(lp643
g104
ag3
aF1813.57
aI4303
aI3244
aa(lp644
g104
ag3
aF1817.78
aI4312
aI3244
aa(lp645
g104
ag3
aF1821.06
aI4318
aI3244
aa(lp646
g104
ag3
aF1825.01
aI4326
aI3244
aa(lp647
g104
ag3
aF1828.94
aI4335
aI3244
aa(lp648
g104
ag3
aF1833.26
aI4345
aI3244
aa(lp649
g104
ag3
aF1836.91
aI4353
aI3244
aa(lp650
g104
ag3
aF1841.26
aI4362
aI3244
aa(lp651
g104
ag3
aF1845.47
aI4371
aI3281
aa(lp652
g104
ag3
aF1850.37
aI4380
aI3281
aa(lp653
g104
ag3
aF1854.76
aI4389
aI3281
aa(lp654
g104
ag3
aF1858.95
aI4399
aI3281
aa(lp655
g104
ag3
aF1863.96
aI4409
aI3281
aa(lp656
g104
ag3
aF1868.17
aI4418
aI3281
aa(lp657
g104
ag3
aF1872.79
aI4428
aI3281
aa(lp658
g104
ag3
aF1876.29
aI4435
aI3281
aa(lp659
g104
ag3
aF1880.9
aI4445
aI3281
aa(lp660
g104
ag3
aF1885.51
aI4455
aI3281
aa(lp661
g104
ag3
aF1889.48
aI4463
aI3281
aa(lp662
g104
ag3
aF1893.81
aI4472
aI3281
aa(lp663
g104
ag3
aF1898.0
aI4481
aI3281
aa(lp664
g104
ag3
aF1901.25
aI4488
aI3281
aa(lp665
g104
ag3
aF1905.6
aI4497
aI3281
aa(lp666
g104
ag3
aF1909.55
aI4505
aI3281
aa(lp667
g104
ag3
aF1912.7
aI4511
aI3281
aa(lp668
g104
ag3
aF1917.03
aI4520
aI3281
aa(lp669
g104
ag3
aF1921.37
aI4529
aI3281
aa(lp670
g104
ag3
aF1925.73
aI4538
aI3281
aa(lp671
g104
ag3
aF1929.82
aI4547
aI3281
aa(lp672
g104
ag3
aF1934.43
aI4557
aI3281
aa(lp673
g104
ag3
aF1938.62
aI4566
aI3281
aa(lp674
g104
ag3
aF1942.96
aI4575
aI3281
aa(lp675
g104
ag3
aF1947.31
aI4584
aI3281
aa(lp676
g104
ag3
aF1951.54
aI4593
aI3281
aa(lp677
g104
ag3
aF1956.3
aI4603
aI3281
aa(lp678
g104
ag3
aF1960.23
aI4611
aI3281
aa(lp679
g104
ag3
aF1964.43
aI4620
aI3281
aa(lp680
g104
ag3
aF1969.33
aI4630
aI3281
aa(lp681
g104
ag3
aF1974.74
aI4640
aI3281
aa(lp682
g104
ag3
aF1979.24
aI4650
aI3281
aa(lp683
g104
ag3
aF1984.0
aI4660
aI3281
aa(lp684
g104
ag3
aF1988.32
aI4670
aI3281
aa(lp685
g104
ag3
aF1992.94
aI4680
aI3281
aa(lp686
g104
ag3
aF1996.57
aI4688
aI3281
aa(lp687
g104
ag3
aF2001.34
aI4698
aI3281
aa(lp688
g104
ag3
aF2004.83
aI4706
aI3281
aa(lp689
g104
ag3
aF2009.46
aI4716
aI3281
aa(lp690
g104
ag3
aF2012.28
aI4721
aI3281
aa(lp691
g104
ag3
aF2015.81
aI4728
aI3281
aa(lp692
g104
ag3
aF2020.29
aI4737
aI3281
aa(lp693
g104
ag3
aF2023.94
aI4744
aI3281
aa(lp694
g104
ag3
aF2027.74
aI4752
aI3281
aa(lp695
g104
ag3
aF2031.24
aI4759
aI3281
aa(lp696
g104
ag3
aF2035.86
aI4769
aI3281
aa(lp697
g104
ag3
aF2039.79
aI4777
aI3281
aa(lp698
g104
ag3
aF2042.59
aI4783
aI3281
aa(lp699
g104
ag3
aF2046.37
aI4791
aI3281
aa(lp700
g104
ag3
aF2049.3
aI4797
aI3281
aa(lp701
g104
ag3
aF2053.49
aI4806
aI3281
aa(lp702
g104
ag3
aF2057.3
aI4814
aI3281
aa(lp703
g104
ag3
aF2061.38
aI4822
aI3281
aa(lp704
g104
ag3
aF2065.99
aI4832
aI3281
aa(lp705
g104
ag3
aF2070.19
aI4841
aI3281
aa(lp706
g104
ag3
aF2074.11
aI4849
aI3281
aa(lp707
g104
ag3
aF2076.92
aI4855
aI3281
aa(lp708
g104
ag3
aF2080.02
aI4861
aI3281
aa(lp709
g104
ag3
aF2081.89
aI4864
aI3281
aa(lp710
g104
ag3
aF2086.66
aI4874
aI3281
aa(lp711
g104
ag3
aF2090.59
aI4882
aI3281
aa(lp712
g104
ag3
aF2094.56
aI4890
aI3281
aa(lp713
g104
ag3
aF2098.93
aI4899
aI3281
aa(lp714
g104
ag3
aF2102.99
aI4907
aI3281
aa(lp715
g104
ag3
aF2106.77
aI4915
aI3281
aa(lp716
g104
ag3
aF2110.15
aI4922
aI3281
aa(lp717
g104
ag3
aF2114.35
aI4931
aI3281
aa(lp718
g104
ag3
aF2117.87
aI4939
aI3281
aa(lp719
g104
ag3
aF2122.49
aI4949
aI3281
aa(lp720
g104
ag3
aF2126.56
aI4958
aI3281
aa(lp721
g104
ag3
aF2129.92
aI4965
aI3281
aa(lp722
g104
ag3
aF2133.7
aI4973
aI3281
aa(lp723
g104
ag3
aF2136.92
aI4980
aI3281
aa(lp724
g104
ag3
aF2140.0
aI4986
aI3281
aa(lp725
g104
ag3
aF2143.93
aI4994
aI3281
aa(lp726
g104
ag3
aF2147.18
aI5001
aI3281
aa(lp727
g104
ag3
aF2151.79
aI5011
aI3281
aa(lp728
g104
ag3
aF2155.33
aI5019
aI3281
aa(lp729
g104
ag3
aF2159.66
aI5028
aI3281
aa(lp730
g104
ag3
aF2164.57
aI5038
aI3281
aa(lp731
g104
ag3
aF2167.8
aI5045
aI3281
aa(lp732
g104
ag3
aF2172.57
aI5055
aI3281
aa(lp733
g104
ag3
aF2176.11
aI5062
aI3281
aa(lp734
g104
ag3
aF2180.46
aI5071
aI3281
aa(lp735
g104
ag3
aF2184.42
aI5079
aI3281
aa(lp736
g104
ag3
aF2188.35
aI5087
aI3281
aa(lp737
g104
ag3
aF2192.97
aI5097
aI3281
aa(lp738
g104
ag3
aF2197.09
aI5105
aI3281
aa(lp739
g104
ag3
aF2201.61
aI5114
aI3281
aa(lp740
g104
ag3
aF2205.4
aI5122
aI3281
aa(lp741
g104
ag3
aF2209.08
aI5130
aI3281
aa(lp742
g104
ag3
aF2213.04
aI5138
aI3281
aa(lp743
g104
ag3
aF2216.53
aI5146
aI3281
aa(lp744
g104
ag3
aF2220.73
aI5155
aI3281
aa(lp745
g104
ag3
aF2224.79
aI5164
aI3281
aa(lp746
g104
ag3
aF2229.25
aI5174
aI3281
aa(lp747
g104
ag3
aF2232.06
aI5179
aI3281
aa(lp748
g104
ag3
aF2236.53
aI5189
aI3281
aa(lp749
g104
ag3
aF2239.89
aI5196
aI3281
aa(lp750
g104
ag3
aF2244.38
aI5205
aI3281
aa(lp751
g104
ag3
aF2248.87
aI5214
aI3281
aa(lp752
g104
ag3
aF2253.63
aI5224
aI3281
aa(lp753
g104
ag3
aF2256.75
aI5230
aI3281
aa(lp754
g104
ag3
aF2260.66
aI5239
aI3281
aa(lp755
g104
ag3
aF2263.95
aI5245
aI3281
aa(lp756
g104
ag3
aF2267.22
aI5251
aI3281
aa(lp757
g104
ag3
aF2271.71
aI5260
aI3281
aa(lp758
g104
ag3
aF2276.61
aI5270
aI3281
aa(lp759
g104
ag3
aF2280.11
aI5278
aI3281
aa(lp760
g104
ag3
aF2283.32
aI5285
aI3281
aa(lp761
g104
ag3
aF2286.98
aI5292
aI3281
aa(lp762
g104
ag3
aF2289.66
aI5297
aI3281
aa(lp763
g104
ag3
aF2293.47
aI5305
aI3281
aa(lp764
g104
ag3
aF2296.56
aI5311
aI3281
aa(lp765
g104
ag3
aF2300.07
aI5318
aI3281
aa(lp766
g104
ag3
aF2303.49
aI5325
aI3281
aa(lp767
g104
ag3
aF2308.11
aI5335
aI3281
aa(lp768
g104
ag3
aF2310.64
aI5340
aI3281
aa(lp769
g104
ag3
aF2315.27
aI5350
aI3281
aa(lp770
g104
ag3
aF2319.5
aI5359
aI3281
aa(lp771
g104
ag3
aF2322.17
aI5364
aI3281
aa(lp772
g104
ag3
aF2326.53
aI5373
aI3281
aa(lp773
g104
ag3
aF2330.74
aI5382
aI3281
aa(lp774
g104
ag3
aF2334.94
aI5391
aI3281
aa(lp775
g104
ag3
aF2339.42
aI5401
aI3281
aa(lp776
g104
ag3
aF2344.05
aI5411
aI3281
aa(lp777
g104
ag3
aF2347.58
aI5418
aI3281
aa(lp778
g104
ag3
aF2351.53
aI5426
aI3281
aa(lp779
g104
ag3
aF2355.18
aI5433
aI3281
aa(lp780
g104
ag3
aF2358.34
aI5439
aI3281
aa(lp781
g104
ag3
aF2362.13
aI5447
aI3281
aa(lp782
g104
ag3
aF2364.92
aI5453
aI3281
aa(lp783
g104
ag3
aF2367.6
aI5458
aI3281
aa(lp784
g104
ag3
aF2371.41
aI5466
aI3281
aa(lp785
g104
ag3
aF2374.93
aI5473
aI3281
aa(lp786
g104
ag3
aF2379.55
aI5483
aI3281
aa(lp787
g104
ag3
aF2382.27
aI5488
aI3281
aa(lp788
g104
ag3
aF2385.94
aI5495
aI3281
aa(lp789
g104
ag3
aF2389.46
aI5502
aI3281
aa(lp790
g104
ag3
aF2393.4
aI5510
aI3281
aa(lp791
g104
ag3
aF2397.34
aI5518
aI3281
aa(lp792
g104
ag3
aF2400.05
aI5523
aI3281
aa(lp793
g104
ag3
aF2404.11
aI5532
aI3281
aa(lp794
g104
ag3
aF2407.9
aI5540
aI3281
aa(lp795
g104
ag3
aF2411.54
aI5548
aI3281
aa(lp796
g104
ag3
aF2415.06
aI5555
aI3281
aa(lp797
g104
ag3
aF2418.72
aI5563
aI3281
aa(lp798
g104
ag3
aF2421.58
aI5569
aI3281
aa(lp799
g104
ag3
aF2425.66
aI5577
aI3281
aa(lp800
g104
ag3
aF2429.76
aI5585
aI3281
aa(lp801
g104
ag3
aF2433.97
aI5594
aI3281
aa(lp802
g104
ag3
aF2437.34
aI5601
aI3281
aa(lp803
g104
ag3
aF2441.57
aI5610
aI3281
aa(lp804
g104
ag3
aF2445.13
aI5618
aI3281
aa(lp805
g104
ag3
aF2448.59
aI5625
aI3281
aa(lp806
g104
ag3
aF2452.93
aI5634
aI3281
aa(lp807
g104
ag3
aF2456.49
aI5641
aI3281
aa(lp808
g104
ag3
aF2460.3
aI5649
aI3281
aa(lp809
g104
ag3
aF2464.68
aI5658
aI3281
aa(lp810
g104
ag3
aF2468.11
aI5665
aI3281
aa(lp811
g104
ag3
aF2471.65
aI5673
aI3281
aa(lp812
g104
ag3
aF2475.86
aI5682
aI3281
aa(lp813
g104
ag3
aF2480.05
aI5691
aI3281
aa(lp814
g104
ag3
aF2484.8
aI5701
aI3281
aa(lp815
g104
ag3
aF2488.64
aI5709
aI3281
aa(lp816
g104
ag3
aF2492.46
aI5717
aI3281
aa(lp817
g104
ag3
aF2496.01
aI5724
aI3281
aa(lp818
g104
ag3
aF2499.98
aI5732
aI3281
aa(lp819
g104
ag3
aF2504.32
aI5741
aI3281
aa(lp820
g104
ag3
aF2508.27
aI5749
aI3281
aa(lp821
g104
ag3
aF2512.79
aI5758
aI3281
aa(lp822
g104
ag3
aF2516.47
aI5766
aI3281
aa(lp823
g104
ag3
aF2520.86
aI5775
aI3281
aa(lp824
g104
ag3
aF2525.14
aI5784
aI3281
aa(lp825
g104
ag3
aF2529.09
aI5793
aI3281
aa(lp826
g104
ag3
aF2533.46
aI5802
aI3281
aa(lp827
g104
ag3
aF2537.15
aI5810
aI3281
aa(lp828
g104
ag3
aF2541.53
aI5819
aI3281
aa(lp829
g104
ag3
aF2545.47
aI5827
aI3281
aa(lp830
g104
ag3
aF2550.44
aI5837
aI3281
aa(lp831
g104
ag3
aF2555.22
aI5847
aI3281
aa(lp832
g104
ag3
aF2559.46
aI5856
aI3281
aa(lp833
g104
ag3
aF2563.84
aI5865
aI3281
aa(lp834
g104
ag3
aF2568.62
aI5875
aI3281
aa(lp835
g104
ag3
aF2571.7
aI5882
aI3281
aa(lp836
g104
ag3
aF2576.07
aI5891
aI3281
aa(lp837
g104
ag3
aF2579.34
aI5898
aI3281
aa(lp838
g104
ag3
aF2583.18
aI5906
aI3281
aa(lp839
g104
ag3
aF2587.56
aI5915
aI3281
aa(lp840
g104
ag3
aF2591.53
aI5923
aI3281
aa(lp841
g104
ag3
aF2595.49
aI5931
aI3281
aa(lp842
g104
ag3
aF2599.55
aI5939
aI3281
aa(lp843
g104
ag3
aF2603.2
aI5947
aI3281
aa(lp844
g104
ag3
aF2608.3
aI5957
aI3281
aa(lp845
g104
ag3
aF2612.23
aI5965
aI3281
aa(lp846
g104
ag3
aF2616.43
aI5974
aI3281
aa(lp847
g104
ag3
aF2620.52
aI5983
aI3281
aa(lp848
g104
ag3
aF2624.48
aI5991
aI3281
aa(lp849
g104
ag3
aF2628.56
aI6000
aI3281
aa(lp850
g104
ag3
aF2631.81
aI6007
aI3281
aa(lp851
g104
ag3
aF2636.43
aI6017
aI3281
aa(lp852
g104
ag3
aF2640.2
aI6025
aI3281
aa(lp853
g104
ag3
aF2644.4
aI6034
aI3281
aa(lp854
g104
ag3
aF2648.46
aI6043
aI3281
aa(lp855
g104
ag3
aF2653.09
aI6053
aI3281
aa(lp856
g104
ag3
aF2657.3
aI6062
aI3281
aa(lp857
g104
ag3
aF2661.25
aI6070
aI3281
aa(lp858
g104
ag3
aF2664.69
aI6077
aI3281
aa(lp859
g104
ag3
aF2669.19
aI6086
aI3281
aa(lp860
g104
ag3
aF2673.54
aI6095
aI3281
aa(lp861
g104
ag3
aF2677.21
aI6103
aI3281
aa(lp862
g104
ag3
aF2681.58
aI6112
aI3281
aa(lp863
g104
ag3
aF2684.82
aI6118
aI3281
aa(lp864
g104
ag3
aF2688.59
aI6126
aI3281
aa(lp865
g104
ag3
aF2692.39
aI6134
aI3281
aa(lp866
g104
ag3
aF2695.19
aI6140
aI3281
aa(lp867
g104
ag3
aF2699.14
aI6148
aI3281
aa(lp868
g104
ag3
aF2703.76
aI6158
aI3281
aa(lp869
g104
ag3
aF2707.04
aI6164
aI3281
aa(lp870
g104
ag3
aF2713.04
aI6173
aI3281
aa(lp871
g104
ag3
aF2717.53
aI6182
aI3281
aa(lp872
g104
ag3
aF2721.73
aI6191
aI3281
aa(lp873
g104
ag3
aF2725.93
aI6200
aI3281
aa(lp874
g104
ag3
aF2729.99
aI6209
aI3281
aa(lp875
g104
ag3
aF2734.47
aI6219
aI3281
aa(lp876
g104
ag3
aF2738.93
aI6229
aI3281
aa(lp877
g104
ag3
aF2742.21
aI6237
aI3281
aa(lp878
g104
ag3
aF2745.57
aI6246
aI3281
aa(lp879
g104
ag3
aF2749.17
aI6256
aI3281
aa(lp880
g104
ag3
aF2752.97
aI6265
aI3281
aa(lp881
g104
ag3
aF2756.53
aI6273
aI3281
aa(lp882
g104
ag3
aF2759.58
aI6281
aI3281
aa(lp883
g104
ag3
aF2763.17
aI6291
aI3281
aa(lp884
g104
ag3
aF2766.69
aI6300
aI3281
aa(lp885
g104
ag3
aF2769.77
aI6308
aI3281
aa(lp886
g104
ag3
aF2773.01
aI6316
aI3281
aa(lp887
g104
ag3
aF2776.08
aI6323
aI3281
aa(lp888
g104
ag3
aF2779.48
aI6331
aI3281
aa(lp889
g104
ag3
aF2783.37
aI6341
aI3281
aa(lp890
g104
ag3
aF2786.34
aI6348
aI3281
aa(lp891
g104
ag3
aF2789.81
aI6357
aI3281
aa(lp892
g104
ag3
aF2792.63
aI6364
aI3281
aa(lp893
g104
ag3
aF2796.68
aI6373
aI3281
aa(lp894
g104
ag3
aF2800.42
aI6383
aI3281
aa(lp895
g104
ag3
aF2803.36
aI6390
aI3281
aa(lp896
g104
ag3
aF2806.74
aI6398
aI3281
aa(lp897
g104
ag3
aF2809.79
aI6406
aI3281
aa(lp898
g104
ag3
aF2812.99
aI6414
aI3281
aa(lp899
g104
ag3
aF2816.33
aI6422
aI3281
aa(lp900
g104
ag3
aF2820.08
aI6432
aI3281
aa(lp901
g104
ag3
aF2823.17
aI6440
aI3281
aa(lp902
g104
ag3
aF2826.79
aI6448
aI3423
aa(lp903
g104
ag3
aF2830.71
aI6458
aI3443
aa(lp904
g104
ag3
aF2833.69
aI6465
aI3443
aa(lp905
g104
ag3
aF2837.27
aI6474
aI3443
aa(lp906
g104
ag3
aF2840.19
aI6481
aI3443
aa(lp907
g104
ag3
aF2843.67
aI6490
aI3443
aa(lp908
g104
ag3
aF2847.3
aI6499
aI3443
aa(lp909
g104
ag3
aF2851.01
aI6508
aI3443
aa(lp910
g104
ag3
aF2854.81
aI6518
aI3443
aa(lp911
g104
ag3
aF2858.56
aI6528
aI3443
aa(lp912
g104
ag3
aF2862.2
aI6537
aI3443
aa(lp913
g104
ag3
aF2865.49
aI6545
aI3443
aa(lp914
g104
ag3
aF2868.68
aI6553
aI3443
aa(lp915
g104
ag3
aF2872.38
aI6562
aI3443
aa(lp916
g104
ag3
aF2875.92
aI6571
aI3443
aa(lp917
g104
ag3
aF2878.99
aI6579
aI3443
aa(lp918
g104
ag3
aF2882.08
aI6587
aI3443
aa(lp919
g104
ag3
aF2885.43
aI6596
aI3443
aa(lp920
g104
ag3
aF2888.99
aI6605
aI3443
aa(lp921
g104
ag3
aF2891.98
aI6612
aI3443
aa(lp922
g104
ag3
aF2894.84
aI6619
aI3443
aa(lp923
g104
ag3
aF2898.53
aI6628
aI3443
aa(lp924
g104
ag3
aF2901.74
aI6636
aI3443
aa(lp925
g104
ag3
aF2904.82
aI6644
aI3443
aa(lp926
g104
ag3
aF2907.93
aI6652
aI3443
aa(lp927
g104
ag3
aF2911.37
aI6661
aI3443
aa(lp928
g104
ag3
aF2914.29
aI6668
aI3443
aa(lp929
g104
ag3
aF2917.52
aI6676
aI3443
aa(lp930
g104
ag3
aF2920.9
aI6685
aI3443
aa(lp931
g104
ag3
aF2924.41
aI6695
aI3443
aa(lp932
g104
ag3
aF2927.31
aI6703
aI3443
aa(lp933
g104
ag3
aF2930.33
aI6710
aI3443
aa(lp934
g104
ag3
aF2933.95
aI6720
aI3443
aa(lp935
g104
ag3
aF2937.53
aI6730
aI3443
aa(lp936
g104
ag3
aF2939.84
aI6735
aI3443
aa(lp937
g104
ag3
aF2943.77
aI6745
aI3443
aa(lp938
g104
ag3
aF2947.15
aI6754
aI3443
aa(lp939
g104
ag3
aF2950.95
aI6764
aI3443
aa(lp940
g104
ag3
aF2954.46
aI6773
aI3443
aa(lp941
g104
ag3
aF2958.44
aI6783
aI3443
aa(lp942
g104
ag3
aF2962.29
aI6793
aI3443
aa(lp943
g104
ag3
aF2965.3
aI6800
aI3443
aa(lp944
g104
ag3
aF2968.56
aI6808
aI3443
aa(lp945
g104
ag3
aF2971.54
aI6815
aI3443
aa(lp946
g104
ag3
aF2974.52
aI6822
aI3443
aa(lp947
g104
ag3
aF2977.56
aI6829
aI3443
aa(lp948
g104
ag3
aF2981.0
aI6837
aI3443
aa(lp949
g104
ag3
aF2984.68
aI6846
aI3443
aa(lp950
g104
ag3
aF2988.5
aI6855
aI3443
aa(lp951
g104
ag3
aF2991.54
aI6862
aI3443
aa(lp952
g104
ag3
aF2995.06
aI6871
aI3443
aa(lp953
g104
ag3
aF2998.92
aI6881
aI3443
aa(lp954
g104
ag3
aF3002.82
aI6891
aI3443
aa(lp955
g104
ag3
aF3005.65
aI6898
aI3443
aa(lp956
g104
ag3
aF3008.92
aI6906
aI3443
aa(lp957
g104
ag3
aF3012.21
aI6914
aI3443
aa(lp958
g104
ag3
aF3015.46
aI6922
aI3443
aa(lp959
g104
ag3
aF3019.43
aI6932
aI3443
aa(lp960
g104
ag3
aF3022.65
aI6940
aI3443
aa(lp961
g104
ag3
aF3026.23
aI6949
aI3443
aa(lp962
g104
ag3
aF3029.94
aI6958
aI3443
aa(lp963
g104
ag3
aF3033.49
aI6967
aI3443
aa(lp964
g104
ag3
aF3036.53
aI6974
aI3443
aa(lp965
g104
ag3
aF3040.2
aI6983
aI3443
aa(lp966
g104
ag3
aF3043.61
aI6991
aI3443
aa(lp967
g104
ag3
aF3046.97
aI6999
aI3443
aa(lp968
g104
ag3
aF3050.5
aI7008
aI3443
aa(lp969
g104
ag3
aF3054.05
aI7017
aI3443
aa(lp970
g104
ag3
aF3057.12
aI7024
aI3443
aa(lp971
g104
ag3
aF3060.26
aI7032
aI3443
aa(lp972
g104
ag3
aF3063.92
aI7041
aI3443
aa(lp973
g104
ag3
aF3067.47
aI7050
aI3443
aa(lp974
g104
ag3
aF3070.97
aI7059
aI3443
aa(lp975
g104
ag3
aF3075.01
aI7069
aI3443
aa(lp976
g104
ag3
aF3078.6
aI7078
aI3443
aa(lp977
g104
ag3
aF3082.26
aI7087
aI3443
aa(lp978
g104
ag3
aF3085.46
aI7095
aI3443
aa(lp979
g104
ag3
aF3088.75
aI7103
aI3443
aa(lp980
g104
ag3
aF3092.32
aI7112
aI3443
aa(lp981
g104
ag3
aF3096.16
aI7122
aI3443
aa(lp982
g104
ag3
aF3099.75
aI7131
aI3443
aa(lp983
g104
ag3
aF3103.32
aI7140
aI3443
aa(lp984
g104
ag3
aF3106.66
aI7148
aI3443
aa(lp985
g104
ag3
aF3110.64
aI7158
aI3443
aa(lp986
g104
ag3
aF3113.69
aI7165
aI3443
aa(lp987
g104
ag3
aF3116.93
aI7173
aI3443
aa(lp988
g104
ag3
aF3120.51
aI7182
aI3443
aa(lp989
g104
ag3
aF3124.12
aI7191
aI3443
aa(lp990
g104
ag3
aF3127.71
aI7200
aI3443
aa(lp991
g104
ag3
aF3131.35
aI7209
aI3443
aa(lp992
g104
ag3
aF3134.7
aI7217
aI3443
aa(lp993
g104
ag3
aF3138.02
aI7225
aI3443
aa(lp994
g104
ag3
aF3141.64
aI7234
aI3443
aa(lp995
g104
ag3
aF3145.28
aI7243
aI3443
aa(lp996
g104
ag3
aF3148.63
aI7251
aI3443
aa(lp997
g104
ag3
aF3151.67
aI7258
aI3443
aa(lp998
g104
ag3
aF3154.93
aI7266
aI3443
aa(lp999
g104
ag3
aF3158.24
aI7274
aI3443
aa(lp1000
g104
ag3
aF3161.71
aI7283
aI3443
aa(lp1001
g104
ag3
aF3165.37
aI7292
aI3443
aa(lp1002
g104
ag3
aF3168.68
aI7300
aI3443
aa(lp1003
g104
ag3
aF3172.37
aI7309
aI3443
aa(lp1004
g104
ag3
aF3176.06
aI7318
aI3443
aa(lp1005
g104
ag3
aF3178.6
aI7324
aI3443
aa(lp1006
g104
ag3
aF3181.53
aI7331
aI3443
aa(lp1007
g104
ag3
aF3184.67
aI7339
aI3443
aa(lp1008
g104
ag3
aF3188.27
aI7348
aI3443
aa(lp1009
g104
ag3
aF3191.48
aI7356
aI3443
aa(lp1010
g104
ag3
aF3194.16
aI7362
aI3443
aa(lp1011
g104
ag3
aF3197.24
aI7369
aI3443
aa(lp1012
g104
ag3
aF3200.44
aI7377
aI3443
aa(lp1013
g104
ag3
aF3203.85
aI7385
aI3443
aa(lp1014
g104
ag3
aF3206.59
aI7391
aI3443
aa(lp1015
g104
ag3
aF3210.51
aI7401
aI3443
aa(lp1016
g104
ag3
aF3213.83
aI7409
aI3443
aa(lp1017
g104
ag3
aF3217.08
aI7417
aI3443
aa(lp1018
g104
ag3
aF3219.77
aI7423
aI3443
aa(lp1019
g104
ag3
aF3223.4
aI7432
aI3443
aa(lp1020
g104
ag3
aF3225.94
aI7438
aI3443
aa(lp1021
g104
ag3
aF3229.28
aI7446
aI3443
aa(lp1022
g104
ag3
aF3232.58
aI7454
aI3443
aa(lp1023
g104
ag3
aF3235.78
aI7462
aI3443
aa(lp1024
g104
ag3
aF3238.98
aI7470
aI3443
aa(lp1025
g104
ag3
aF3242.24
aI7478
aI3443
aa(lp1026
g104
ag3
aF3246.04
aI7488
aI3443
aa(lp1027
g104
ag3
aF3249.36
aI7496
aI3443
aa(lp1028
g104
ag3
aF3252.72
aI7504
aI3443
aa(lp1029
g104
ag3
aF3256.36
aI7513
aI3443
aa(lp1030
g104
ag3
aF3259.23
aI7520
aI3443
aa(lp1031
g104
ag3
aF3262.19
aI7527
aI3443
aa(lp1032
g104
ag3
aF3265.87
aI7536
aI3443
aa(lp1033
g104
ag3
aF3269.14
aI7544
aI3443
aa(lp1034
g104
ag3
aF3272.28
aI7552
aI3443
aa(lp1035
g104
ag3
aF3275.95
aI7561
aI3443
aa(lp1036
g104
ag3
aF3278.91
aI7568
aI3443
aa(lp1037
g104
ag3
aF3281.93
aI7575
aI3443
aa(lp1038
g104
ag3
aF3284.84
aI7582
aI3443
aa(lp1039
g104
ag3
aF3288.18
aI7590
aI3443
aa(lp1040
g104
ag3
aF3290.85
aI7596
aI3443
aa(lp1041
g104
ag3
aF3294.17
aI7604
aI3443
aa(lp1042
g104
ag3
aF3296.77
aI7610
aI3443
aa(lp1043
g104
ag3
aF3300.75
aI7620
aI3443
aa(lp1044
g104
ag3
aF3304.48
aI7629
aI3443
aa(lp1045
g104
ag3
aF3307.81
aI7637
aI3443
aa(lp1046
g104
ag3
aF3311.16
aI7645
aI3443
aa(lp1047
g104
ag3
aF3314.31
aI7653
aI3443
aa(lp1048
g104
ag3
aF3317.73
aI7661
aI3443
aa(lp1049
g104
ag3
aF3320.79
aI7668
aI3443
aa(lp1050
g104
ag3
aF3324.69
aI7678
aI3443
aa(lp1051
g104
ag3
aF3328.02
aI7686
aI3443
aa(lp1052
g104
ag3
aF3331.6
aI7695
aI3443
aa(lp1053
g104
ag3
aF3334.99
aI7703
aI3443
aa(lp1054
g104
ag3
aF3338.51
aI7711
aI3443
aa(lp1055
g104
ag3
aF3342.01
aI7719
aI3443
aa(lp1056
g104
ag3
aF3346.0
aI7729
aI3443
aa(lp1057
g104
ag3
aF3350.01
aI7739
aI3443
aa(lp1058
g104
ag3
aF3353.35
aI7747
aI3443
aa(lp1059
g104
ag3
aF3356.58
aI7755
aI3443
aa(lp1060
g104
ag3
aF3359.61
aI7762
aI3443
aa(lp1061
g104
ag3
aF3362.89
aI7770
aI3443
aa(lp1062
g104
ag3
aF3366.55
aI7779
aI3443
aa(lp1063
g104
ag3
aF3370.69
aI7789
aI3443
aa(lp1064
g104
ag3
aF3374.19
aI7797
aI3443
aa(lp1065
g104
ag3
aF3377.57
aI7805
aI3443
aa(lp1066
g104
ag3
aF3380.88
aI7813
aI3443
aa(lp1067
g104
ag3
aF3384.52
aI7822
aI3443
aa(lp1068
g104
ag3
aF3388.12
aI7831
aI3443
aa(lp1069
g104
ag3
aF3391.9
aI7840
aI3443
aa(lp1070
g104
ag3
aF3395.12
aI7848
aI3443
aa(lp1071
g104
ag3
aF3398.82
aI7857
aI3443
aa(lp1072
g104
ag3
aF3402.12
aI7865
aI3443
aa(lp1073
g104
ag3
aF3406.15
aI7875
aI3443
aa(lp1074
g104
ag3
aF3409.44
aI7883
aI3443
aa(lp1075
g104
ag3
aF3412.52
aI7890
aI3443
aa(lp1076
g104
ag3
aF3416.1
aI7899
aI3443
aa(lp1077
g104
ag3
aF3419.1
aI7906
aI3443
aa(lp1078
g104
ag3
aF3422.2
aI7913
aI3443
aa(lp1079
g104
ag3
aF3425.1
aI7920
aI3443
aa(lp1080
g104
ag3
aF3428.02
aI7927
aI3443
aa(lp1081
g104
ag3
aF3431.66
aI7936
aI3443
aa(lp1082
g104
ag3
aF3434.37
aI7942
aI3443
aa(lp1083
g104
ag3
aF3437.96
aI7951
aI3443
aa(lp1084
g104
ag3
aF3441.6
aI7960
aI3443
aa(lp1085
g104
ag3
aF3444.92
aI7968
aI3443
aa(lp1086
g104
ag3
aF3447.89
aI7975
aI3443
aa(lp1087
g104
ag3
aF3452.12
aI7985
aI3443
aa(lp1088
g104
ag3
aF3455.3
aI7993
aI3443
aa(lp1089
g104
ag3
aF3458.65
aI8001
aI3443
aa(lp1090
g104
ag3
aF3462.34
aI8010
aI3443
aa(lp1091
g104
ag3
aF3466.35
aI8020
aI3443
aa(lp1092
g104
ag3
aF3469.8
aI8028
aI3443
aa(lp1093
g104
ag3
aF3473.44
aI8037
aI3443
aa(lp1094
g104
ag3
aF3477.13
aI8046
aI3443
aa(lp1095
g104
ag3
aF3479.12
aI8050
aI3443
aa(lp1096
g104
ag3
aF3481.81
aI8056
aI3443
aa(lp1097
g104
ag3
aF3485.06
aI8064
aI3443
aa(lp1098
g104
ag3
aF3488.4
aI8072
aI3443
aa(lp1099
g104
ag3
aF3491.66
aI8080
aI3443
aa(lp1100
g104
ag3
aF3495.42
aI8089
aI3443
aa(lp1101
g104
ag3
aF3498.35
aI8096
aI3443
aa(lp1102
g104
ag3
aF3501.45
aI8103
aI3443
aa(lp1103
g104
ag3
aF3505.08
aI8112
aI3443
aa(lp1104
g104
ag3
aF3508.33
aI8120
aI3443
aa(lp1105
g104
ag3
aF3511.35
aI8127
aI3443
aa(lp1106
g104
ag3
aF3515.26
aI8137
aI3443
aa(lp1107
g104
ag3
aF3518.18
aI8144
aI3443
aa(lp1108
g104
ag3
aF3521.3
aI8152
aI3443
aa(lp1109
g104
ag3
aF3525.22
aI8162
aI3443
aa(lp1110
g104
ag3
aF3528.81
aI8171
aI3443
aa(lp1111
g104
ag3
aF3531.76
aI8178
aI3443
aa(lp1112
g104
ag3
aF3535.07
aI8186
aI3443
aa(lp1113
g104
ag3
aF3538.09
aI8193
aI3443
aa(lp1114
g104
ag3
aF3541.84
aI8202
aI3443
aa(lp1115
g104
ag3
aF3545.07
aI8210
aI3443
aa(lp1116
g104
ag3
aF3548.12
aI8217
aI3443
aa(lp1117
g104
ag3
aF3551.14
aI8224
aI3443
aa(lp1118
g104
ag3
aF3554.3
aI8232
aI3443
aa(lp1119
g104
ag3
aF3557.26
aI8239
aI3443
aa(lp1120
g104
ag3
aF3561.22
aI8249
aI3443
aa(lp1121
g104
ag3
aF3564.84
aI8258
aI3443
aa(lp1122
g104
ag3
aF3568.47
aI8267
aI3443
aa(lp1123
g104
ag3
aF3572.44
aI8277
aI3443
aa(lp1124
g104
ag3
aF3576.0
aI8286
aI3443
aa(lp1125
g104
ag3
aF3579.96
aI8296
aI3443
aa(lp1126
g104
ag3
aF3584.31
aI8306
aI3443
aa(lp1127
g104
ag3
aF3588.27
aI8316
aI3443
aa(lp1128
g104
ag3
aF3592.16
aI8326
aI3443
aa(lp1129
g104
ag3
aF3596.1
aI8336
aI3443
aa(lp1130
g104
ag3
aF3600.12
aI8346
aI3443
aa(lp1131
g104
ag3
aF3603.53
aI8354
aI3443
aa(lp1132
g104
ag3
aF3606.84
aI8362
aI3443
aa(lp1133
g104
ag3
aF3610.45
aI8371
aI3443
aa(lp1134
g104
ag3
aF3614.34
aI8381
aI3443
aa(lp1135
g104
ag3
aF3617.66
aI8389
aI3443
aa(lp1136
g104
ag3
aF3621.4
aI8398
aI3443
aa(lp1137
g104
ag3
aF3625.23
aI8408
aI3443
aa(lp1138
g104
ag3
aF3628.54
aI8416
aI3443
aa(lp1139
g104
ag3
aF3631.83
aI8424
aI3443
aa(lp1140
g104
ag3
aF3635.48
aI8433
aI3443
aa(lp1141
g104
ag3
aF3639.1
aI8442
aI3443
aa(lp1142
g104
ag3
aF3642.71
aI8451
aI3443
aa(lp1143
g104
ag3
aF3646.37
aI8460
aI3443
aa(lp1144
g104
ag3
aF3650.06
aI8469
aI3443
aa(lp1145
g104
ag3
aF3654.12
aI8479
aI3443
aa(lp1146
g104
ag3
aF3657.75
aI8488
aI3443
aa(lp1147
g104
ag3
aF3660.81
aI8495
aI3443
aa(lp1148
g104
ag3
aF3664.47
aI8504
aI3443
aa(lp1149
g104
ag3
aF3667.88
aI8512
aI3443
aa(lp1150
g104
ag3
aF3671.26
aI8520
aI3443
aa(lp1151
g104
ag3
aF3674.84
aI8529
aI3443
aa(lp1152
g104
ag3
aF3677.77
aI8536
aI3443
aa(lp1153
g104
ag3
aF3681.0
aI8544
aI3443
aa(lp1154
g104
ag3
aF3685.01
aI8554
aI3443
aa(lp1155
g104
ag3
aF3688.05
aI8561
aI3443
aa(lp1156
g104
ag3
aF3691.35
aI8569
aI3443
aa(lp1157
g104
ag3
aF3695.02
aI8578
aI3443
aa(lp1158
g104
ag3
aF3698.95
aI8588
aI3443
aa(lp1159
g104
ag3
aF3702.63
aI8597
aI3443
aa(lp1160
g104
ag3
aF3706.35
aI8606
aI3443
aa(lp1161
g104
ag3
aF3709.72
aI8614
aI3443
aa(lp1162
g104
ag3
aF3713.34
aI8623
aI3443
aa(lp1163
g104
ag3
aF3717.1
aI8632
aI3443
aa(lp1164
g104
ag3
aF3720.64
aI8641
aI3443
aa(lp1165
g104
ag3
aF3724.31
aI8650
aI3443
aa(lp1166
g104
ag3
aF3728.19
aI8660
aI3443
aa(lp1167
g104
ag3
aF3731.95
aI8669
aI3443
aa(lp1168
g104
ag3
aF3735.58
aI8678
aI3443
aa(lp1169
g104
ag3
aF3739.53
aI8688
aI3443
aa(lp1170
g104
ag3
aF3743.34
aI8697
aI3443
aa(lp1171
g104
ag3
aF3746.98
aI8706
aI3443
aa(lp1172
g104
ag3
aF3750.89
aI8716
aI3443
aa(lp1173
g104
ag3
aF3753.85
aI8723
aI3443
aa(lp1174
g104
ag3
aF3757.29
aI8732
aI3443
aa(lp1175
g104
ag3
aF3760.52
aI8740
aI3443
aa(lp1176
g104
ag3
aF3764.06
aI8749
aI3443
aa(lp1177
g104
ag3
aF3767.48
aI8757
aI3443
aa(lp1178
g104
ag3
aF3770.14
aI8763
aI3443
aa(lp1179
g104
ag3
aF3773.19
aI8770
aI3443
aa(lp1180
g104
ag3
aF3776.53
aI8778
aI3443
aa(lp1181
g104
ag3
aF3779.83
aI8786
aI3443
aa(lp1182
g104
ag3
aF3783.67
aI8796
aI3443
aa(lp1183
g104
ag3
aF3787.68
aI8806
aI3443
aa(lp1184
g104
ag3
aF3791.01
aI8814
aI3443
aa(lp1185
g104
ag3
aF3794.98
aI8824
aI3443
aa(lp1186
g104
ag3
aF3798.41
aI8832
aI3443
aa(lp1187
g104
ag3
aF3801.45
aI8839
aI3443
aa(lp1188
g104
ag3
aF3804.41
aI8846
aI3443
aa(lp1189
g104
ag3
aF3806.96
aI8852
aI3443
aa(lp1190
g104
ag3
aF3810.12
aI8860
aI3443
aa(lp1191
g104
ag3
aF3813.17
aI8868
aI3443
aa(lp1192
g104
ag3
aF3816.24
aI8876
aI3443
aa(lp1193
g104
ag3
aF3818.86
aI8882
aI3443
aa(lp1194
g104
ag3
aF3822.01
aI8890
aI3443
aa(lp1195
g104
ag3
aF3825.11
aI8898
aI3443
aa(lp1196
g104
ag3
aF3828.36
aI8907
aI3443
aa(lp1197
g104
ag3
aF3831.55
aI8915
aI3443
aa(lp1198
g104
ag3
aF3834.74
aI8923
aI3443
aa(lp1199
g104
ag3
aF3838.49
aI8933
aI3443
aa(lp1200
g104
ag3
aF3841.68
aI8941
aI3443
aa(lp1201
g104
ag3
aF3844.87
aI8949
aI3443
aa(lp1202
g104
ag3
aF3848.43
aI8959
aI3443
aa(lp1203
g104
ag3
aF3851.86
aI8968
aI3443
aa(lp1204
g104
ag3
aF3855.21
aI8977
aI3443
aa(lp1205
g104
ag3
aF3858.6
aI8986
aI3443
aa(lp1206
g104
ag3
aF3861.94
aI8995
aI3443
aa(lp1207
g104
ag3
aF3864.47
aI9001
aI3443
aa(lp1208
g104
ag3
aF3867.3
aI9008
aI3443
aa(lp1209
g104
ag3
aF3871.08
aI9018
aI3443
aa(lp1210
g104
ag3
aF3874.71
aI9028
aI3443
aa(lp1211
g104
ag3
aF3877.31
aI9034
aI3443
aa(lp1212
g104
ag3
aF3881.05
aI9044
aI3443
aa(lp1213
g104
ag3
aF3884.97
aI9054
aI3443
aa(lp1214
g104
ag3
aF3888.59
aI9064
aI3443
aa(lp1215
g104
ag3
aF3891.93
aI9073
aI3443
aa(lp1216
g104
ag3
aF3895.38
aI9082
aI3443
aa(lp1217
g104
ag3
aF3899.07
aI9092
aI3443
aa(lp1218
g104
ag3
aF3902.26
aI9100
aI3443
aa(lp1219
g104
ag3
aF3905.8
aI9109
aI3443
aa(lp1220
g104
ag3
aF3908.67
aI9116
aI3443
aa(lp1221
g104
ag3
aF3911.51
aI9123
aI3443
aa(lp1222
g104
ag3
aF3915.13
aI9133
aI3443
aa(lp1223
g104
ag3
aF3918.6
aI9142
aI3443
aa(lp1224
g104
ag3
aF3922.2
aI9151
aI3443
aa(lp1225
g104
ag3
aF3924.94
aI9158
aI3443
aa(lp1226
g104
ag3
aF3928.21
aI9166
aI3443
aa(lp1227
g104
ag3
aF3931.56
aI9175
aI3443
aa(lp1228
g104
ag3
aF3935.29
aI9185
aI3443
aa(lp1229
g104
ag3
aF3938.02
aI9192
aI3443
aa(lp1230
g104
ag3
aF3941.09
aI9200
aI3443
aa(lp1231
g104
ag3
aF3944.59
aI9210
aI3443
aa(lp1232
g104
ag3
aF3948.15
aI9220
aI3443
aa(lp1233
g104
ag3
aF3951.93
aI9230
aI3443
aa(lp1234
g104
ag3
aF3955.34
aI9239
aI3443
aa(lp1235
g104
ag3
aF3958.68
aI9248
aI3443
aa(lp1236
g104
ag3
aF3961.2
aI9254
aI3443
aa(lp1237
g104
ag3
aF3964.04
aI9261
aI3443
aa(lp1238
g104
ag3
aF3966.89
aI9268
aI3443
aa(lp1239
g104
ag3
aF3970.47
aI9277
aI3443
aa(lp1240
g104
ag3
aF3973.54
aI9285
aI3443
aa(lp1241
g104
ag3
aF3976.6
aI9293
aI3443
aa(lp1242
g104
ag3
aF3979.68
aI9301
aI3443
aa(lp1243
g104
ag3
aF3983.34
aI9311
aI3443
aa(lp1244
g104
ag3
aF3986.38
aI9319
aI3443
aa(lp1245
g104
ag3
aF3989.23
aI9326
aI3443
aa(lp1246
g104
ag3
aF3992.23
aI9334
aI3443
aa(lp1247
g104
ag3
aF3994.75
aI9340
aI3443
aa(lp1248
g104
ag3
aF3997.52
aI9347
aI3443
aa(lp1249
g104
ag3
aF4000.8
aI9356
aI3443
aa(lp1250
g104
ag3
aF4004.54
aI9366
aI3443
aa(lp1251
g104
ag3
aF4007.84
aI9374
aI3443
aa(lp1252
g104
ag3
aF4011.24
aI9383
aI3443
aa(lp1253
g104
ag3
aF4014.85
aI9393
aI3443
aa(lp1254
g104
ag3
aF4018.83
aI9403
aI3443
aa(lp1255
g104
ag3
aF4022.1
aI9411
aI3443
aa(lp1256
g104
ag3
aF4025.58
aI9420
aI3443
aa(lp1257
g104
ag3
aF4028.14
aI9426
aI3443
aa(lp1258
g104
ag3
aF4031.6
aI9435
aI3443
aa(lp1259
g104
ag3
aF4035.2
aI9444
aI3443
aa(lp1260
g104
ag3
aF4038.81
aI9453
aI3443
aa(lp1261
g104
ag3
aF4042.34
aI9462
aI3443
aa(lp1262
g104
ag3
aF4045.89
aI9471
aI3443
aa(lp1263
g104
ag3
aF4048.99
aI9478
aI3443
aa(lp1264
g104
ag3
aF4052.38
aI9486
aI3443
aa(lp1265
g104
ag3
aF4055.36
aI9493
aI3443
aa(lp1266
g104
ag3
aF4059.11
aI9502
aI3443
aa(lp1267
g104
ag3
aF4063.1
aI9512
aI3443
aa(lp1268
g104
ag3
aF4066.42
aI9520
aI3443
aa(lp1269
g104
ag3
aF4070.11
aI9529
aI3443
aa(lp1270
g104
ag3
aF4073.45
aI9537
aI3443
aa(lp1271
g104
ag3
aF4077.31
aI9547
aI3443
aa(lp1272
g104
ag3
aF4081.21
aI9557
aI3443
aa(lp1273
g104
ag3
aF4084.12
aI9564
aI3443
aa(lp1274
g104
ag3
aF4087.46
aI9572
aI3443
aa(lp1275
g104
ag3
aF4090.62
aI9580
aI3443
aa(lp1276
g104
ag3
aF4093.92
aI9588
aI3443
aa(lp1277
g104
ag3
aF4097.27
aI9596
aI3443
aa(lp1278
g104
ag3
aF4100.57
aI9604
aI3443
aa(lp1279
g104
ag3
aF4103.63
aI9611
aI3443
aa(lp1280
g104
ag3
aF4107.2
aI9620
aI3443
aa(lp1281
g104
ag3
aF4110.94
aI9629
aI3443
aa(lp1282
g104
ag3
aF4114.01
aI9636
aI3443
aa(lp1283
g104
ag3
aF4117.7
aI9645
aI3443
aa(lp1284
g104
ag3
aF4120.66
aI9652
aI3443
aa(lp1285
g104
ag3
aF4124.69
aI9662
aI3443
aa(lp1286
g104
ag3
aF4128.45
aI9671
aI3443
aa(lp1287
g104
ag3
aF4132.14
aI9680
aI3443
aa(lp1288
g104
ag3
aF4135.39
aI9688
aI3443
aa(lp1289
g104
ag3
aF4139.3
aI9698
aI3443
aa(lp1290
g104
ag3
aF4142.57
aI9706
aI3443
aa(lp1291
g104
ag3
aF4146.21
aI9715
aI3443
aa(lp1292
g104
ag3
aF4150.2
aI9725
aI3443
aa(lp1293
g104
ag3
aF4153.58
aI9733
aI3443
aa(lp1294
g104
ag3
aF4157.3
aI9742
aI3443
aa(lp1295
g104
ag3
aF4160.22
aI9749
aI3443
aa(lp1296
g104
ag3
aF4163.47
aI9757
aI3443
aa(lp1297
g104
ag3
aF4166.99
aI9766
aI3443
aa(lp1298
g104
ag3
aF4170.94
aI9776
aI3443
aa(lp1299
g104
ag3
aF4174.84
aI9786
aI3443
aa(lp1300
g104
ag3
aF4178.67
aI9796
aI3443
aa(lp1301
g104
ag3
aF4181.69
aI9803
aI3443
aa(lp1302
g104
ag3
aF4185.66
aI9813
aI3443
aa(lp1303
g104
ag3
aF4189.29
aI9822
aI3443
aa(lp1304
g104
ag3
aF4192.98
aI9832
aI3443
aa(lp1305
g104
ag3
aF4196.31
aI9841
aI3443
aa(lp1306
g104
ag3
aF4199.49
aI9849
aI3443
aa(lp1307
g104
ag3
aF4202.49
aI9857
aI3443
aa(lp1308
g104
ag3
aF4205.77
aI9865
aI3443
aa(lp1309
g104
ag3
aF4208.95
aI9873
aI3443
aa(lp1310
g104
ag3
aF4211.67
aI9879
aI3443
aa(lp1311
g104
ag3
aF4214.14
aI9885
aI3443
aa(lp1312
g104
ag3
aF4217.82
aI9894
aI3443
aa(lp1313
g104
ag3
aF4221.46
aI9903
aI3443
aa(lp1314
g104
ag3
aF4224.56
aI9910
aI3443
aa(lp1315
g104
ag3
aF4227.97
aI9918
aI3443
aa(lp1316
g104
ag3
aF4231.72
aI9928
aI3443
aa(lp1317
g104
ag3
aF4235.26
aI9937
aI3443
aa(lp1318
g104
ag3
aF4238.83
aI9946
aI3443
aa(lp1319
g104
ag3
aF4242.2
aI9955
aI3443
aa(lp1320
g104
ag3
aF4246.09
aI9965
aI3443
aa(lp1321
g104
ag3
aF4249.22
aI9972
aI3443
aa(lp1322
g104
ag3
aF4253.29
aI9982
aI3443
aa(lp1323
g104
ag3
aF4256.81
aI9991
aI3443
aa(lp1324
g104
ag3
aF4259.99
aI9999
aI3443
aa(lp1325
g104
ag3
aF4263.62
aI10008
aI3443
aa(lp1326
g104
ag3
aF4266.62
aI10015
aI3443
aa(lp1327
g104
ag3
aF4270.62
aI10025
aI3443
aa(lp1328
g104
ag3
aF4274.24
aI10034
aI3443
aa(lp1329
g104
ag3
aF4278.07
aI10044
aI3443
aa(lp1330
g104
ag3
aF4281.85
aI10054
aI3443
aa(lp1331
g104
ag3
aF4285.47
aI10063
aI3443
aa(lp1332
g104
ag3
aF4288.83
aI10071
aI3443
aa(lp1333
g104
ag3
aF4292.4
aI10079
aI3443
aa(lp1334
g104
ag3
aF4295.8
aI10087
aI3443
aa(lp1335
g104
ag3
aF4298.15
aI10092
aI3443
aa(lp1336
g104
ag3
aF4302.07
aI10102
aI3443
aa(lp1337
g104
ag3
aF4305.16
aI10109
aI3443
aa(lp1338
g104
ag3
aF4308.91
aI10118
aI3443
aa(lp1339
g104
ag3
aF4313.0
aI10128
aI3443
aa(lp1340
g104
ag3
aF4316.91
aI10138
aI3443
aa(lp1341
g104
ag3
aF4320.12
aI10146
aI3443
aa(lp1342
g104
ag3
aF4322.82
aI10152
aI3443
aa(lp1343
g104
ag3
aF4326.4
aI10161
aI3443
aa(lp1344
g104
ag3
aF4330.09
aI10170
aI3443
aa(lp1345
g104
ag3
aF4334.56
aI10180
aI3516
aa(lp1346
g104
ag3
aF4338.23
aI10189
aI3516
aa(lp1347
g104
ag3
aF4341.88
aI10198
aI3516
aa(lp1348
g104
ag3
aF4345.28
aI10207
aI3516
aa(lp1349
g104
ag3
aF4348.36
aI10215
aI3516
aa(lp1350
g104
ag3
aF4351.06
aI10221
aI3516
aa(lp1351
g104
ag3
aF4353.79
aI10228
aI3516
aa(lp1352
g104
ag3
aF4356.82
aI10235
aI3516
aa(lp1353
g104
ag3
aF4360.61
aI10245
aI3516
aa(lp1354
g104
ag3
aF4364.24
aI10255
aI3516
aa(lp1355
g104
ag3
aF4368.16
aI10265
aI3516
aa(lp1356
g104
ag3
aF4371.35
aI10273
aI3516
aa(lp1357
g104
ag3
aF4374.58
aI10281
aI3516
aa(lp1358
g104
ag3
aF4378.22
aI10290
aI3516
aa(lp1359
g104
ag3
aF4381.27
aI10297
aI3516
aa(lp1360
g104
ag3
aF4384.58
aI10305
aI3516
aa(lp1361
g104
ag3
aF4387.91
aI10313
aI3516
aa(lp1362
g104
ag3
aF4391.82
aI10323
aI3516
aa(lp1363
g104
ag3
aF4395.18
aI10331
aI3516
aa(lp1364
g104
ag3
aF4398.89
aI10340
aI3516
aa(lp1365
g104
ag3
aF4402.59
aI10349
aI3516
aa(lp1366
g104
ag3
aF4406.33
aI10358
aI3516
aa(lp1367
g104
ag3
aF4409.57
aI10366
aI3516
aa(lp1368
g104
ag3
aF4413.22
aI10375
aI3516
aa(lp1369
g104
ag3
aF4416.52
aI10383
aI3516
aa(lp1370
g104
ag3
aF4420.44
aI10393
aI3516
aa(lp1371
g104
ag3
aF4424.35
aI10403
aI3516
aa(lp1372
g104
ag3
aF4427.7
aI10411
aI3516
aa(lp1373
g104
ag3
aF4431.33
aI10420
aI3516
aa(lp1374
g104
ag3
aF4434.97
aI10429
aI3516
aa(lp1375
g104
ag3
aF4438.61
aI10438
aI3516
aa(lp1376
g104
ag3
aF4442.58
aI10448
aI3516
aa(lp1377
g104
ag3
aF4445.61
aI10455
aI3516
aa(lp1378
g104
ag3
aF4449.34
aI10464
aI3516
aa(lp1379
g104
ag3
aF4453.03
aI10473
aI3516
aa(lp1380
g104
ag3
aF4457.01
aI10483
aI3516
aa(lp1381
g104
ag3
aF4460.73
aI10492
aI3516
aa(lp1382
g104
ag3
aF4464.32
aI10501
aI3516
aa(lp1383
g104
ag3
aF4467.29
aI10508
aI3516
aa(lp1384
g104
ag3
aF4470.3
aI10515
aI3516
aa(lp1385
g104
ag3
aF4474.04
aI10524
aI3516
aa(lp1386
g104
ag3
aF4477.99
aI10534
aI3516
aa(lp1387
g104
ag3
aF4481.45
aI10543
aI3516
aa(lp1388
g104
ag3
aF4485.09
aI10552
aI3516
aa(lp1389
g104
ag3
aF4488.95
aI10562
aI3516
aa(lp1390
g104
ag3
aF4492.47
aI10571
aI3516
aa(lp1391
g104
ag3
aF4495.66
aI10579
aI3516
aa(lp1392
g104
ag3
aF4499.11
aI10588
aI3516
aa(lp1393
g104
ag3
aF4503.14
aI10598
aI3516
aa(lp1394
g104
ag3
aF4507.11
aI10608
aI3516
aa(lp1395
g104
ag3
aF4510.76
aI10617
aI3516
aa(lp1396
g104
ag3
aF4514.69
aI10627
aI3516
aa(lp1397
g104
ag3
aF4518.73
aI10637
aI3516
aa(lp1398
g104
ag3
aF4522.01
aI10645
aI3516
aa(lp1399
g104
ag3
aF4525.48
aI10653
aI3516
aa(lp1400
g104
ag3
aF4528.55
aI10660
aI3516
aa(lp1401
g104
ag3
aF4532.25
aI10669
aI3516
aa(lp1402
g104
ag3
aF4535.94
aI10678
aI3516
aa(lp1403
g104
ag3
aF4538.98
aI10685
aI3516
aa(lp1404
g104
ag3
aF4542.68
aI10694
aI3516
aa(lp1405
g104
ag3
aF4546.71
aI10704
aI3516
aa(lp1406
g104
ag3
aF4550.38
aI10713
aI3516
aa(lp1407
g104
ag3
aF4554.09
aI10722
aI3516
aa(lp1408
g104
ag3
aF4557.82
aI10731
aI3516
aa(lp1409
g104
ag3
aF4561.59
aI10740
aI3516
aa(lp1410
g104
ag3
aF4565.75
aI10749
aI3516
aa(lp1411
g104
ag3
aF4569.08
aI10757
aI3516
aa(lp1412
g104
ag3
aF4572.08
aI10764
aI3516
aa(lp1413
g104
ag3
aF4575.89
aI10774
aI3516
aa(lp1414
g104
ag3
aF4579.16
aI10782
aI3516
aa(lp1415
g104
ag3
aF4582.83
aI10791
aI3516
aa(lp1416
g104
ag3
aF4586.69
aI10801
aI3516
aa(lp1417
g104
ag3
aF4590.54
aI10811
aI3516
aa(lp1418
g104
ag3
aF4593.78
aI10819
aI3516
aa(lp1419
g104
ag3
aF4597.47
aI10828
aI3516
aa(lp1420
g104
ag3
aF4600.72
aI10836
aI3516
aa(lp1421
g104
ag3
aF4604.76
aI10846
aI3516
aa(lp1422
g104
ag3
aF4608.14
aI10854
aI3516
aa(lp1423
g104
ag3
aF4612.29
aI10864
aI3516
aa(lp1424
g104
ag3
aF4616.37
aI10874
aI3516
aa(lp1425
g104
ag3
aF4620.38
aI10884
aI3516
aa(lp1426
g104
ag3
aF4624.2
aI10893
aI3516
aa(lp1427
g104
ag3
aF4627.24
aI10900
aI3516
aa(lp1428
g104
ag3
aF4630.86
aI10909
aI3516
aa(lp1429
g104
ag3
aF4634.48
aI10918
aI3516
aa(lp1430
g104
ag3
aF4638.22
aI10927
aI3516
aa(lp1431
g104
ag3
aF4642.17
aI10937
aI3516
aa(lp1432
g104
ag3
aF4645.45
aI10945
aI3516
aa(lp1433
g104
ag3
aF4649.46
aI10955
aI3516
aa(lp1434
g104
ag3
aF4652.6
aI10962
aI3516
aa(lp1435
g104
ag3
aF4656.95
aI10972
aI3516
aa(lp1436
g104
ag3
aF4660.37
aI10980
aI3516
aa(lp1437
g104
ag3
aF4664.22
aI10990
aI3516
aa(lp1438
g104
ag3
aF4667.52
aI10998
aI3516
aa(lp1439
g104
ag3
aF4671.26
aI11007
aI3516
aa(lp1440
g104
ag3
aF4674.63
aI11015
aI3516
aa(lp1441
g104
ag3
aF4678.61
aI11025
aI3516
aa(lp1442
g104
ag3
aF4682.52
aI11035
aI3516
aa(lp1443
g104
ag3
aF4686.45
aI11045
aI3516
aa(lp1444
g104
ag3
aF4689.97
aI11054
aI3516
aa(lp1445
g104
ag3
aF4693.71
aI11063
aI3516
aa(lp1446
g104
ag3
aF4697.44
aI11072
aI3516
aa(lp1447
g104
ag3
aF4701.13
aI11081
aI3516
aa(lp1448
g104
ag3
aF4704.5
aI11089
aI3516
aa(lp1449
g104
ag3
aF4707.85
aI11097
aI3516
aa(lp1450
g104
ag3
aF4711.64
aI11107
aI3516
aa(lp1451
g104
ag3
aF4715.49
aI11117
aI3516
aa(lp1452
g104
ag3
aF4719.4
aI11127
aI3516
aa(lp1453
g104
ag3
aF4722.71
aI11135
aI3516
aa(lp1454
g104
ag3
aF4726.07
aI11143
aI3516
aa(lp1455
g104
ag3
aF4729.77
aI11152
aI3516
aa(lp1456
g104
ag3
aF4733.42
aI11161
aI3516
aa(lp1457
g104
ag3
aF4737.11
aI11170
aI3572
aa(lp1458
g104
ag3
aF4740.76
aI11179
aI3578
aa(lp1459
g104
ag3
aF4744.08
aI11187
aI3697
aa(lp1460
g104
ag3
aF4747.78
aI11196
aI3697
aa(lp1461
g104
ag3
aF4751.13
aI11204
aI3697
aa(lp1462
g104
ag3
aF4754.53
aI11212
aI3697
aa(lp1463
g104
ag3
aF4757.78
aI11220
aI3697
aa(lp1464
g104
ag3
aF4761.64
aI11230
aI3697
aa(lp1465
g104
ag3
aF4765.41
aI11239
aI3697
aa(lp1466
g104
ag3
aF4768.85
aI11247
aI3697
aa(lp1467
g104
ag3
aF4772.67
aI11257
aI3697
aa(lp1468
g104
ag3
aF4776.27
aI11266
aI3697
aa(lp1469
g104
ag3
aF4779.93
aI11275
aI3697
aa(lp1470
g104
ag3
aF4783.32
aI11283
aI3697
aa(lp1471
g104
ag3
aF4787.21
aI11293
aI3697
aa(lp1472
g104
ag3
aF4790.52
aI11301
aI3697
aa(lp1473
g104
ag3
aF4793.97
aI11309
aI3697
aa(lp1474
g104
ag3
aF4797.74
aI11318
aI3697
aa(lp1475
g104
ag3
aF4801.21
aI11327
aI3701
aa(lp1476
g104
ag3
aF4804.89
aI11336
aI3701
aa(lp1477
g104
ag3
aF4807.79
aI11343
aI3701
aa(lp1478
g104
ag3
aF4811.45
aI11352
aI3701
aa(lp1479
g104
ag3
aF4815.01
aI11361
aI3701
aa(lp1480
g104
ag3
aF4818.79
aI11370
aI3702
aa(lp1481
g104
ag3
aF4821.54
aI11376
aI3702
aa(lp1482
g104
ag3
aF4824.66
aI11383
aI3702
aa(lp1483
g104
ag3
aF4828.51
aI11392
aI3702
aa(lp1484
g104
ag3
aF4832.28
aI11401
aI3702
aa(lp1485
g104
ag3
aF4835.55
aI11409
aI3702
aa(lp1486
g104
ag3
aF4839.23
aI11418
aI3702
aa(lp1487
g104
ag3
aF4842.6
aI11426
aI3702
aa(lp1488
g104
ag3
aF4846.0
aI11434
aI3702
aa(lp1489
g104
ag3
aF4849.84
aI11443
aI3702
aa(lp1490
g104
ag3
aF4853.26
aI11451
aI3702
aa(lp1491
g104
ag3
aF4856.64
aI11459
aI3702
aa(lp1492
g104
ag3
aF4860.24
aI11468
aI3702
aa(lp1493
g104
ag3
aF4863.9
aI11478
aI3702
aa(lp1494
g104
ag3
aF4867.0
aI11486
aI3702
aa(lp1495
g104
ag3
aF4870.36
aI11494
aI3702
aa(lp1496
g104
ag3
aF4873.95
aI11502
aI3702
aa(lp1497
g104
ag3
aF4877.88
aI11512
aI3702
aa(lp1498
g104
ag3
aF4881.71
aI11522
aI3702
aa(lp1499
g104
ag3
aF4884.42
aI11528
aI3702
aa(lp1500
g104
ag3
aF4888.11
aI11537
aI3702
aa(lp1501
g104
ag3
aF4892.36
aI11547
aI3702
aa(lp1502
g104
ag3
aF4896.05
aI11556
aI3702
aa(lp1503
g104
ag3
aF4899.83
aI11565
aI3702
aa(lp1504
g104
ag3
aF4903.57
aI11574
aI3702
aa(lp1505
g104
ag3
aF4908.19
aI11584
aI3702
aa(lp1506
g104
ag3
aF4911.68
aI11592
aI3702
aa(lp1507
g104
ag3
aF4916.27
aI11601
aI3702
aa(lp1508
g104
ag3
aF4919.62
aI11608
aI3702
aa(lp1509
g104
ag3
aF4923.47
aI11617
aI3702
aa(lp1510
g104
ag3
aF4926.6
aI11624
aI3702
aa(lp1511
g104
ag3
aF4929.79
aI11631
aI3702
aa(lp1512
g104
ag3
aF4933.44
aI11639
aI3702
aa(lp1513
g104
ag3
aF4936.94
aI11646
aI3702
aa(lp1514
g104
ag3
aF4940.94
aI11655
aI3702
aa(lp1515
g104
ag3
aF4945.06
aI11664
aI3702
aa(lp1516
g104
ag3
aF4949.41
aI11673
aI3702
aa(lp1517
g104
ag3
aF4952.71
aI11680
aI3702
aa(lp1518
g104
ag3
aF4956.17
aI11688
aI3702
aa(lp1519
g104
ag3
aF4960.53
aI11698
aI3702
aa(lp1520
g104
ag3
aF4964.48
aI11708
aI3702
aa(lp1521
g104
ag3
aF4967.99
aI11716
aI3702
aa(lp1522
g104
ag3
aF4971.42
aI11724
aI3702
aa(lp1523
g104
ag3
aF4975.0
aI11732
aI3702
aa(lp1524
g104
ag3
aF4979.94
aI11742
aI3702
aa(lp1525
g104
ag3
aF4982.99
aI11749
aI3702
aa(lp1526
g104
ag3
aF4987.05
aI11758
aI3702
aa(lp1527
g104
ag3
aF4991.02
aI11767
aI3702
aa(lp1528
g104
ag3
aF4994.66
aI11776
aI3702
aa(lp1529
g104
ag3
aF4998.75
aI11785
aI3702
aa(lp1530
g104
ag3
aF5002.88
aI11794
aI3702
aa(lp1531
g104
ag3
aF5007.01
aI11803
aI3702
aa(lp1532
g104
ag3
aF5010.81
aI11812
aI3702
aa(lp1533
g104
ag3
aF5014.53
aI11820
aI3702
aa(lp1534
g104
ag3
aF5018.34
aI11829
aI3702
aa(lp1535
g104
ag3
aF5022.06
aI11837
aI3702
aa(lp1536
g104
ag3
aF5026.08
aI11846
aI3702
aa(lp1537
g104
ag3
aF5029.5
aI11854
aI3702
aa(lp1538
g104
ag3
aF5033.69
aI11863
aI3702
aa(lp1539
g104
ag3
aF5037.02
aI11871
aI3702
aa(lp1540
g104
ag3
aF5041.3
aI11880
aI3702
aa(lp1541
g104
ag3
aF5043.99
aI11886
aI3702
aa(lp1542
g104
ag3
aF5048.4
aI11896
aI3702
aa(lp1543
g104
ag3
aF5052.86
aI11906
aI3702
aa(lp1544
g104
ag3
aF5056.36
aI11914
aI3702
aa(lp1545
g104
ag3
aF5060.15
aI11923
aI3702
aa(lp1546
g104
ag3
aF5064.5
aI11933
aI3702
aa(lp1547
g104
ag3
aF5069.04
aI11942
aI3702
aa(lp1548
g104
ag3
aF5073.01
aI11951
aI3702
aa(lp1549
g104
ag3
aF5075.97
aI11958
aI3702
aa(lp1550
g104
ag3
aF5079.98
aI11967
aI3702
aa(lp1551
g104
ag3
aF5083.8
aI11976
aI3702
aa(lp1552
g104
ag3
aF5087.79
aI11985
aI3702
aa(lp1553
g104
ag3
aF5091.67
aI11994
aI3702
aa(lp1554
g104
ag3
aF5095.62
aI12003
aI3702
aa(lp1555
g104
ag3
aF5099.65
aI12011
aI3702
aa(lp1556
g104
ag3
aF5103.65
aI12020
aI3702
aa(lp1557
g104
ag3
aF5107.72
aI12029
aI3702
aa(lp1558
g104
ag3
aF5111.64
aI12038
aI3702
aa(lp1559
g104
ag3
aF5115.37
aI12045
aI3702
aa(lp1560
g104
ag3
aF5118.91
aI12053
aI3702
aa(lp1561
g104
ag3
aF5122.7
aI12062
aI3702
aa(lp1562
g104
ag3
aF5126.68
aI12071
aI3702
aa(lp1563
g104
ag3
aF5130.54
aI12080
aI3702
aa(lp1564
g104
ag3
aF5134.79
aI12090
aI3702
aa(lp1565
g104
ag3
aF5138.64
aI12099
aI3702
aa(lp1566
g104
ag3
aF5142.37
aI12107
aI3702
aa(lp1567
g104
ag3
aF5146.47
aI12116
aI3702
aa(lp1568
g104
ag3
aF5149.55
aI12123
aI3702
aa(lp1569
g104
ag3
aF5153.55
aI12132
aI3702
aa(lp1570
g104
ag3
aF5156.99
aI12139
aI3702
aa(lp1571
g104
ag3
aF5161.03
aI12148
aI3702
aa(lp1572
g104
ag3
aF5164.32
aI12155
aI3702
aa(lp1573
g104
ag3
aF5167.41
aI12162
aI3702
aa(lp1574
g104
ag3
aF5171.09
aI12170
aI3702
aa(lp1575
g104
ag3
aF5174.92
aI12179
aI3702
aa(lp1576
g104
ag3
aF5179.33
aI12189
aI3702
aa(lp1577
g104
ag3
aF5182.6
aI12196
aI3702
aa(lp1578
g104
ag3
aF5186.6
aI12205
aI3702
aa(lp1579
g104
ag3
aF5190.83
aI12214
aI3702
aa(lp1580
g104
ag3
aF5194.68
aI12223
aI3702
aa(lp1581
g104
ag3
aF5196.77
aI12227
aI3702
aa(lp1582
g104
ag3
aF5200.61
aI12236
aI3702
aa(lp1583
g104
ag3
aF5203.66
aI12242
aI3702
aa(lp1584
g104
ag3
aF5206.32
aI12248
aI3702
aa(lp1585
g104
ag3
aF5210.32
aI12257
aI3702
aa(lp1586
g104
ag3
aF5213.61
aI12265
aI3702
aa(lp1587
g104
ag3
aF5217.25
aI12273
aI3702
aa(lp1588
g104
ag3
aF5220.57
aI12280
aI3702
aa(lp1589
g104
ag3
aF5224.17
aI12288
aI3702
aa(lp1590
g104
ag3
aF5227.67
aI12296
aI3702
aa(lp1591
g104
ag3
aF5231.46
aI12304
aI3702
aa(lp1592
g104
ag3
aF5234.87
aI12311
aI3702
aa(lp1593
g104
ag3
aF5238.31
aI12319
aI3702
aa(lp1594
g104
ag3
aF5242.37
aI12328
aI3702
aa(lp1595
g104
ag3
aF5246.38
aI12337
aI3702
aa(lp1596
g104
ag3
aF5249.45
aI12344
aI3702
aa(lp1597
g104
ag3
aF5252.74
aI12351
aI3702
aa(lp1598
g104
ag3
aF5256.63
aI12360
aI3702
aa(lp1599
g104
ag3
aF5259.75
aI12367
aI3702
aa(lp1600
g104
ag3
aF5263.02
aI12374
aI3702
aa(lp1601
g104
ag3
aF5266.66
aI12382
aI3702
aa(lp1602
g104
ag3
aF5270.3
aI12390
aI3702
aa(lp1603
g104
ag3
aF5273.66
aI12398
aI3702
aa(lp1604
g104
ag3
aF5277.09
aI12406
aI3702
aa(lp1605
g104
ag3
aF5280.61
aI12414
aI3702
aa(lp1606
g104
ag3
aF5284.84
aI12424
aI3702
aa(lp1607
g104
ag3
aF5288.65
aI12433
aI3702
aa(lp1608
g104
ag3
aF5292.6
aI12442
aI3702
aa(lp1609
g104
ag3
aF5296.23
aI12450
aI3702
aa(lp1610
g104
ag3
aF5300.07
aI12459
aI3702
aa(lp1611
g104
ag3
aF5303.19
aI12466
aI3702
aa(lp1612
g104
ag3
aF5305.97
aI12472
aI3702
aa(lp1613
g104
ag3
aF5309.84
aI12481
aI3702
aa(lp1614
g104
ag3
aF5313.93
aI12491
aI3702
aa(lp1615
g104
ag3
aF5317.44
aI12499
aI3702
aa(lp1616
g104
ag3
aF5320.79
aI12507
aI3702
aa(lp1617
g104
ag3
aF5324.86
aI12516
aI3702
aa(lp1618
g104
ag3
aF5327.99
aI12523
aI3702
aa(lp1619
g104
ag3
aF5331.73
aI12532
aI3702
aa(lp1620
g104
ag3
aF5334.66
aI12538
aI3702
aa(lp1621
g104
ag3
aF5338.62
aI12547
aI3702
aa(lp1622
g104
ag3
aF5341.57
aI12553
aI3702
aa(lp1623
g104
ag3
aF5345.11
aI12561
aI3702
aa(lp1624
g104
ag3
aF5348.92
aI12570
aI3702
aa(lp1625
g104
ag3
aF5352.21
aI12577
aI3702
aa(lp1626
g104
ag3
aF5355.63
aI12585
aI3702
aa(lp1627
g104
ag3
aF5360.15
aI12595
aI3702
aa(lp1628
g104
ag3
aF5364.62
aI12605
aI3702
aa(lp1629
g104
ag3
aF5367.69
aI12612
aI3702
aa(lp1630
g104
ag3
aF5371.65
aI12621
aI3702
aa(lp1631
g104
ag3
aF5374.7
aI12628
aI3702
aa(lp1632
g104
ag3
aF5378.36
aI12637
aI3702
aa(lp1633
g104
ag3
aF5381.57
aI12644
aI3702
aa(lp1634
g104
ag3
aF5385.65
aI12653
aI3702
aa(lp1635
g104
ag3
aF5389.84
aI12663
aI3702
aa(lp1636
g104
ag3
aF5393.85
aI12672
aI3702
aa(lp1637
g104
ag3
aF5397.51
aI12680
aI3702
aa(lp1638
g104
ag3
aF5400.93
aI12688
aI3702
aa(lp1639
g104
ag3
aF5405.01
aI12698
aI3702
aa(lp1640
g104
ag3
aF5408.3
aI12705
aI3702
aa(lp1641
g104
ag3
aF5411.97
aI12714
aI3702
aa(lp1642
g104
ag3
aF5416.3
aI12724
aI3702
aa(lp1643
g104
ag3
aF5420.2
aI12733
aI3702
aa(lp1644
g104
ag3
aF5423.17
aI12739
aI3702
aa(lp1645
g104
ag3
aF5426.19
aI12746
aI3702
aa(lp1646
g104
ag3
aF5429.4
aI12753
aI3702
aa(lp1647
g104
ag3
aF5433.3
aI12763
aI3702
aa(lp1648
g104
ag3
aF5436.92
aI12771
aI3702
aa(lp1649
g104
ag3
aF5440.78
aI12780
aI3702
aa(lp1650
g104
ag3
aF5444.99
aI12790
aI3702
aa(lp1651
g104
ag3
aF5448.73
aI12798
aI3702
aa(lp1652
g104
ag3
aF5452.35
aI12806
aI3702
aa(lp1653
g104
ag3
aF5456.28
aI12815
aI3702
aa(lp1654
g104
ag3
aF5459.74
aI12823
aI3702
aa(lp1655
g104
ag3
aF5463.65
aI12832
aI3702
aa(lp1656
g104
ag3
aF5467.64
aI12841
aI3702
aa(lp1657
g104
ag3
aF5471.79
aI12850
aI3702
aa(lp1658
g104
ag3
aF5475.27
aI12858
aI3702
aa(lp1659
g104
ag3
aF5479.61
aI12868
aI3702
aa(lp1660
g104
ag3
aF5482.86
aI12875
aI3702
aa(lp1661
g104
ag3
aF5486.97
aI12884
aI3702
aa(lp1662
g104
ag3
aF5490.93
aI12893
aI3702
aa(lp1663
g104
ag3
aF5494.38
aI12901
aI3702
aa(lp1664
g104
ag3
aF5498.01
aI12909
aI3702
aa(lp1665
g104
ag3
aF5501.81
aI12918
aI3702
aa(lp1666
g104
ag3
aF5504.97
aI12925
aI3702
aa(lp1667
g104
ag3
aF5508.65
aI12933
aI3702
aa(lp1668
g104
ag3
aF5512.11
aI12941
aI3702
aa(lp1669
g104
ag3
aF5515.41
aI12949
aI3702
aa(lp1670
g104
ag3
aF5518.49
aI12956
aI3702
aa(lp1671
g104
ag3
aF5522.03
aI12964
aI3702
aa(lp1672
g104
ag3
aF5525.81
aI12972
aI3702
aa(lp1673
g104
ag3
aF5529.07
aI12979
aI3702
aa(lp1674
g104
ag3
aF5532.87
aI12988
aI3702
aa(lp1675
g104
ag3
aF5536.81
aI12997
aI3702
aa(lp1676
g104
ag3
aF5540.52
aI13005
aI3702
aa(lp1677
g104
ag3
aF5543.78
aI13012
aI3702
aa(lp1678
g104
ag3
aF5547.39
aI13020
aI3702
aa(lp1679
g104
ag3
aF5551.3
aI13029
aI3702
aa(lp1680
g104
ag3
aF5555.23
aI13038
aI3702
aa(lp1681
g104
ag3
aF5559.02
aI13046
aI3702
aa(lp1682
g104
ag3
aF5563.01
aI13055
aI3702
aa(lp1683
g104
ag3
aF5567.45
aI13065
aI3702
aa(lp1684
g104
ag3
aF5570.9
aI13072
aI3702
aa(lp1685
g104
ag3
aF5574.91
aI13081
aI3702
aa(lp1686
g104
ag3
aF5579.02
aI13090
aI3702
aa(lp1687
g104
ag3
aF5581.32
aI13094
aI3702
aa(lp1688
g104
ag3
aF5584.4
aI13101
aI3702
aa(lp1689
g104
ag3
aF5588.03
aI13110
aI3702
aa(lp1690
g104
ag3
aF5592.2
aI13116
aI3702
aa(lp1691
g104
ag3
aF5596.24
aI13125
aI3702
aa(lp1692
g104
ag3
aF5599.76
aI13133
aI3702
aa(lp1693
g104
ag3
aF5604.09
aI13143
aI3702
aa(lp1694
g104
ag3
aF5607.45
aI13150
aI3702
aa(lp1695
g104
ag3
aF5611.26
aI13159
aI3702
aa(lp1696
g104
ag3
aF5614.45
aI13166
aI3702
aa(lp1697
g104
ag3
aF5618.25
aI13175
aI3702
aa(lp1698
g104
ag3
aF5621.37
aI13182
aI3702
aa(lp1699
g104
ag3
aF5624.96
aI13190
aI3702
aa(lp1700
g104
ag3
aF5628.97
aI13200
aI3702
aa(lp1701
g104
ag3
aF5632.88
aI13209
aI3702
aa(lp1702
g104
ag3
aF5635.68
aI13216
aI3702
aa(lp1703
g104
ag3
aF5639.22
aI13224
aI3702
aa(lp1704
g104
ag3
aF5643.05
aI13233
aI3702
aa(lp1705
g104
ag3
aF5647.05
aI13242
aI3702
aa(lp1706
g104
ag3
aF5650.28
aI13249
aI3702
aa(lp1707
g104
ag3
aF5653.76
aI13257
aI3702
aa(lp1708
g104
ag3
aF5657.76
aI13266
aI3702
aa(lp1709
g104
ag3
aF5661.44
aI13274
aI3702
aa(lp1710
g104
ag3
aF5665.51
aI13283
aI3702
aa(lp1711
g104
ag3
aF5668.98
aI13291
aI3702
aa(lp1712
g104
ag3
aF5672.23
aI13298
aI3702
aa(lp1713
g104
ag3
aF5675.46
aI13305
aI3702
aa(lp1714
g104
ag3
aF5679.37
aI13314
aI3702
aa(lp1715
g104
ag3
aF5682.4
aI13321
aI3702
aa(lp1716
g104
ag3
aF5686.18
aI13330
aI3702
aa(lp1717
g104
ag3
aF5690.26
aI13339
aI3702
aa(lp1718
g104
ag3
aF5694.26
aI13348
aI3702
aa(lp1719
g104
ag3
aF5698.04
aI13357
aI3702
aa(lp1720
g104
ag3
aF5702.45
aI13367
aI3702
aa(lp1721
g104
ag3
aF5706.35
aI13376
aI3702
aa(lp1722
g104
ag3
aF5710.26
aI13385
aI3702
aa(lp1723
g104
ag3
aF5714.66
aI13395
aI3702
aa(lp1724
g104
ag3
aF5719.0
aI13405
aI3702
aa(lp1725
g104
ag3
aF5723.32
aI13415
aI3702
aa(lp1726
g104
ag3
aF5727.63
aI13425
aI3702
aa(lp1727
g104
ag3
aF5731.9
aI13435
aI3702
aa(lp1728
g104
ag3
aF5736.29
aI13445
aI3702
aa(lp1729
g104
ag3
aF5740.29
aI13454
aI3702
aa(lp1730
g104
ag3
aF5744.52
aI13463
aI3702
aa(lp1731
g104
ag3
aF5748.1
aI13471
aI3702
aa(lp1732
g104
ag3
aF5752.16
aI13480
aI3702
aa(lp1733
g104
ag3
aF5756.12
aI13489
aI3702
aa(lp1734
g104
ag3
aF5759.78
aI13497
aI3702
aa(lp1735
g104
ag3
aF5763.38
aI13505
aI3702
aa(lp1736
g104
ag3
aF5767.75
aI13515
aI3702
aa(lp1737
g104
ag3
aF5772.08
aI13525
aI3702
aa(lp1738
g104
ag3
aF5775.5
aI13532
aI3702
aa(lp1739
g104
ag3
aF5779.27
aI13540
aI3702
aa(lp1740
g104
ag3
aF5783.56
aI13549
aI3702
aa(lp1741
g104
ag3
aF5787.22
aI13557
aI3702
aa(lp1742
g104
ag3
aF5791.31
aI13566
aI3702
aa(lp1743
g104
ag3
aF5795.34
aI13575
aI3702
aa(lp1744
g104
ag3
aF5799.46
aI13584
aI3702
aa(lp1745
g104
ag3
aF5804.08
aI13594
aI3702
aa(lp1746
g104
ag3
aF5808.26
aI13603
aI3702
aa(lp1747
g104
ag3
aF5811.9
aI13611
aI3702
aa(lp1748
g104
ag3
aF5815.62
aI13619
aI3702
aa(lp1749
g104
ag3
aF5819.71
aI13628
aI3702
aa(lp1750
g104
ag3
aF5823.53
aI13636
aI3702
aa(lp1751
g104
ag3
aF5827.5
aI13645
aI3702
aa(lp1752
g104
ag3
aF5831.37
aI13654
aI3702
aa(lp1753
g104
ag3
aF5835.11
aI13662
aI3702
aa(lp1754
g104
ag3
aF5838.39
aI13670
aI3702
aa(lp1755
g104
ag3
aF5842.35
aI13679
aI3702
aa(lp1756
g104
ag3
aF5846.6
aI13688
aI3702
aa(lp1757
g104
ag3
aF5850.3
aI13696
aI3702
aa(lp1758
g104
ag3
aF5853.62
aI13703
aI3702
aa(lp1759
g104
ag3
aF5858.1
aI13713
aI3702
aa(lp1760
g104
ag3
aF5862.65
aI13723
aI3702
aa(lp1761
g104
ag3
aF5866.66
aI13732
aI3702
aa(lp1762
g104
ag3
aF5870.73
aI13741
aI3702
aa(lp1763
g104
ag3
aF5874.12
aI13748
aI3702
aa(lp1764
g104
ag3
aF5878.22
aI13757
aI3702
aa(lp1765
g104
ag3
aF5882.46
aI13766
aI3702
aa(lp1766
g104
ag3
aF5886.67
aI13776
aI3702
aa(lp1767
g104
ag3
aF5890.53
aI13785
aI3702
aa(lp1768
g104
ag3
aF5894.55
aI13794
aI3702
aa(lp1769
g104
ag3
aF5898.78
aI13804
aI3702
aa(lp1770
g104
ag3
aF5902.95
aI13813
aI3702
aa(lp1771
g104
ag3
aF5907.23
aI13823
aI3702
aa(lp1772
g104
ag3
aF5911.21
aI13832
aI3702
aa(lp1773
g104
ag3
aF5915.3
aI13841
aI3702
aa(lp1774
g104
ag3
aF5919.4
aI13850
aI3702
aa(lp1775
g104
ag3
aF5923.7
aI13860
aI3702
aa(lp1776
g104
ag3
aF5927.47
aI13869
aI3702
aa(lp1777
g104
ag3
aF5931.07
aI13877
aI3702
aa(lp1778
g104
ag3
aF5934.57
aI13886
aI3702
aa(lp1779
g104
ag3
aF5938.22
aI13894
aI3702
aa(lp1780
g104
ag3
aF5942.08
aI13903
aI3702
aa(lp1781
g104
ag3
aF5945.98
aI13911
aI3702
aa(lp1782
g104
ag3
aF5948.8
aI13917
aI3702
aa(lp1783
g104
ag3
aF5952.21
aI13924
aI3702
aa(lp1784
g104
ag3
aF5955.97
aI13932
aI3702
aa(lp1785
g104
ag3
aF5959.81
aI13940
aI3702
aa(lp1786
g104
ag3
aF5963.73
aI13949
aI3702
aa(lp1787
g104
ag3
aF5967.56
aI13958
aI3702
aa(lp1788
g104
ag3
aF5972.12
aI13968
aI3702
aa(lp1789
g104
ag3
aF5975.8
aI13976
aI3702
aa(lp1790
g104
ag3
aF5979.76
aI13985
aI3702
aa(lp1791
g104
ag3
aF5984.06
aI13994
aI3702
aa(lp1792
g104
ag3
aF5986.87
aI14000
aI3702
aa(lp1793
g104
ag3
aF5990.0
aI14007
aI3702
aa(lp1794
g104
ag3
aF5992.95
aI14014
aI3702
aa(lp1795
g104
ag3
aF5996.46
aI14022
aI3702
aa(lp1796
g104
ag3
aF5999.79
aI14030
aI3702
aa(lp1797
g104
ag3
aF6003.25
aI14038
aI3702
aa(lp1798
g104
ag3
aF6006.05
aI14044
aI3702
aa(lp1799
g104
ag3
aF6009.45
aI14052
aI3702
aa(lp1800
g104
ag3
aF6012.64
aI14059
aI3702
aa(lp1801
g104
ag3
aF6016.12
aI14068
aI3702
aa(lp1802
g104
ag3
aF6019.81
aI14077
aI3702
aa(lp1803
g104
ag3
aF6023.2
aI14085
aI3702
aa(lp1804
g104
ag3
aF6026.78
aI14093
aI3702
aa(lp1805
g104
ag3
aF6030.88
aI14103
aI3702
aa(lp1806
g104
ag3
aF6034.04
aI14110
aI3702
aa(lp1807
g104
ag3
aF6037.44
aI14118
aI3702
aa(lp1808
g104
ag3
aF6040.84
aI14126
aI3702
aa(lp1809
g104
ag3
aF6044.4
aI14135
aI3702
aa(lp1810
g104
ag3
aF6048.13
aI14144
aI3702
aa(lp1811
g104
ag3
aF6051.64
aI14153
aI3702
aa(lp1812
g104
ag3
aF6055.29
aI14162
aI3702
aa(lp1813
g104
ag3
aF6059.2
aI14172
aI3702
aa(lp1814
g104
ag3
aF6062.83
aI14181
aI3702
aa(lp1815
g104
ag3
aF6065.41
aI14187
aI3702
aa(lp1816
g104
ag3
aF6069.08
aI14196
aI3702
aa(lp1817
g104
ag3
aF6072.56
aI14204
aI3702
aa(lp1818
g104
ag3
aF6076.36
aI14213
aI3702
aa(lp1819
g104
ag3
aF6079.54
aI14221
aI3702
aa(lp1820
g104
ag3
aF6083.05
aI14229
aI3702
aa(lp1821
g104
ag3
aF6087.03
aI14239
aI3702
aa(lp1822
g104
ag3
aF6091.18
aI14249
aI3702
aa(lp1823
g104
ag3
aF6095.1
aI14258
aI3702
aa(lp1824
g104
ag3
aF6098.88
aI14268
aI3702
aa(lp1825
g104
ag3
aF6102.59
aI14277
aI3702
aa(lp1826
g104
ag3
aF6106.32
aI14286
aI3702
aa(lp1827
g104
ag3
aF6110.35
aI14296
aI3702
aa(lp1828
g104
ag3
aF6113.87
aI14304
aI3702
aa(lp1829
g104
ag3
aF6117.71
aI14313
aI3702
aa(lp1830
g104
ag3
aF6121.19
aI14321
aI3702
aa(lp1831
g104
ag3
aF6123.92
aI14327
aI3702
aa(lp1832
g104
ag3
aF6127.6
aI14336
aI3702
aa(lp1833
g104
ag3
aF6131.51
aI14346
aI3702
aa(lp1834
g104
ag3
aF6135.26
aI14355
aI3702
aa(lp1835
g104
ag3
aF6139.13
aI14364
aI3702
aa(lp1836
g104
ag3
aF6142.51
aI14372
aI3702
aa(lp1837
g104
ag3
aF6146.25
aI14381
aI3702
aa(lp1838
g104
ag3
aF6149.85
aI14389
aI3702
aa(lp1839
g104
ag3
aF6153.38
aI14398
aI3702
aa(lp1840
g104
ag3
aF6157.5
aI14408
aI3702
aa(lp1841
g104
ag3
aF6160.45
aI14415
aI3702
aa(lp1842
g104
ag3
aF6163.98
aI14424
aI3702
aa(lp1843
g104
ag3
aF6167.63
aI14433
aI3702
aa(lp1844
g104
ag3
aF6171.4
aI14443
aI3702
aa(lp1845
g104
ag3
aF6175.48
aI14453
aI3702
aa(lp1846
g104
ag3
aF6179.09
aI14462
aI3702
aa(lp1847
g104
ag3
aF6182.76
aI14471
aI3702
aa(lp1848
g104
ag3
aF6186.26
aI14480
aI3702
aa(lp1849
g104
ag3
aF6189.55
aI14487
aI3702
aa(lp1850
g104
ag3
aF6192.39
aI14493
aI3702
aa(lp1851
g104
ag3
aF6195.98
aI14502
aI3702
aa(lp1852
g104
ag3
aF6198.93
aI14508
aI3702
aa(lp1853
g104
ag3
aF6202.85
aI14517
aI3702
aa(lp1854
g104
ag3
aF6205.84
aI14524
aI3702
aa(lp1855
g104
ag3
aF6209.41
aI14533
aI3702
aa(lp1856
g104
ag3
aF6212.39
aI14540
aI3702
aa(lp1857
g104
ag3
aF6215.97
aI14549
aI3702
aa(lp1858
g104
ag3
aF6219.93
aI14559
aI3702
aa(lp1859
g104
ag3
aF6223.34
aI14567
aI3702
aa(lp1860
g104
ag3
aF6226.4
aI14574
aI3702
aa(lp1861
g104
ag3
aF6229.71
aI14582
aI3702
aa(lp1862
g104
ag3
aF6232.79
aI14589
aI3702
aa(lp1863
g104
ag3
aF6236.04
aI14597
aI3702
aa(lp1864
g104
ag3
aF6238.97
aI14604
aI3702
aa(lp1865
g104
ag3
aF6242.7
aI14613
aI3702
aa(lp1866
g104
ag3
aF6246.75
aI14623
aI3702
aa(lp1867
g104
ag3
aF6250.19
aI14631
aI3702
aa(lp1868
g104
ag3
aF6253.79
aI14640
aI3702
aa(lp1869
g104
ag3
aF6257.76
aI14650
aI3702
aa(lp1870
g104
ag3
aF6261.79
aI14660
aI3702
aa(lp1871
g104
ag3
aF6265.96
aI14669
aI3702
aa(lp1872
g104
ag3
aF6268.9
aI14675
aI3702
aa(lp1873
g104
ag3
aF6272.87
aI14684
aI3702
aa(lp1874
g104
ag3
aF6276.3
aI14692
aI3702
aa(lp1875
g104
ag3
aF6279.54
aI14699
aI3702
aa(lp1876
g104
ag3
aF6283.5
aI14709
aI3702
aa(lp1877
g104
ag3
aF6287.34
aI14718
aI3702
aa(lp1878
g104
ag3
aF6290.95
aI14726
aI3702
aa(lp1879
g104
ag3
aF6295.02
aI14736
aI3702
aa(lp1880
g104
ag3
aF6298.99
aI14745
aI3702
aa(lp1881
g104
ag3
aF6302.27
aI14752
aI3702
aa(lp1882
g104
ag3
aF6306.24
aI14761
aI3702
aa(lp1883
g104
ag3
aF6309.07
aI14767
aI3702
aa(lp1884
g104
ag3
aF6313.04
aI14776
aI3702
aa(lp1885
g104
ag3
aF6317.14
aI14785
aI3702
aa(lp1886
g104
ag3
aF6321.52
aI14795
aI3702
aa(lp1887
g104
ag3
aF6325.1
aI14803
aI3702
aa(lp1888
g104
ag3
aF6328.75
aI14811
aI3702
aa(lp1889
g104
ag3
aF6333.0
aI14821
aI3702
aa(lp1890
g104
ag3
aF6336.95
aI14829
aI3702
aa(lp1891
g104
ag3
aF6341.03
aI14839
aI3702
aa(lp1892
g104
ag3
aF6345.24
aI14849
aI3702
aa(lp1893
g104
ag3
aF6348.35
aI14856
aI3702
aa(lp1894
g104
ag3
aF6352.03
aI14864
aI3702
aa(lp1895
g104
ag3
aF6355.89
aI14873
aI3702
aa(lp1896
g104
ag3
aF6359.0
aI14880
aI3702
aa(lp1897
g104
ag3
aF6362.91
aI14889
aI3702
aa(lp1898
g104
ag3
aF6366.49
aI14897
aI3702
aa(lp1899
g104
ag3
aF6370.05
aI14905
aI3702
aa(lp1900
g104
ag3
aF6373.23
aI14912
aI3702
aa(lp1901
g104
ag3
aF6377.52
aI14922
aI3702
aa(lp1902
g104
ag3
aF6381.2
aI14930
aI3702
aa(lp1903
g104
ag3
aF6384.94
aI14938
aI3702
aa(lp1904
g104
ag3
aF6388.55
aI14946
aI3702
aa(lp1905
g104
ag3
aF6392.14
aI14954
aI3702
aa(lp1906
g104
ag3
aF6395.9
aI14963
aI3702
aa(lp1907
g104
ag3
aF6400.23
aI14973
aI3702
aa(lp1908
g104
ag3
aF6404.31
aI14982
aI3702
aa(lp1909
g104
ag3
aF6408.35
aI14991
aI3702
aa(lp1910
g104
ag3
aF6411.99
aI14999
aI3702
aa(lp1911
g104
ag3
aF6415.85
aI15008
aI3702
aa(lp1912
g104
ag3
aF6419.3
aI15016
aI3702
aa(lp1913
g104
ag3
aF6423.01
aI15025
aI3702
aa(lp1914
g104
ag3
aF6427.3
aI15035
aI3702
aa(lp1915
g104
ag3
aF6431.18
aI15044
aI3702
aa(lp1916
g104
ag3
aF6434.38
aI15051
aI3702
aa(lp1917
g104
ag3
aF6438.37
aI15060
aI3702
aa(lp1918
g104
ag3
aF6441.39
aI15067
aI3702
aa(lp1919
g104
ag3
aF6444.8
aI15075
aI3702
aa(lp1920
g104
ag3
aF6448.5
aI15084
aI3702
aa(lp1921
g104
ag3
aF6452.0
aI15092
aI3702
aa(lp1922
g104
ag3
aF6456.26
aI15102
aI3702
aa(lp1923
g104
ag3
aF6460.53
aI15112
aI3702
aa(lp1924
g104
ag3
aF6464.68
aI15122
aI3702
aa(lp1925
g104
ag3
aF6467.86
aI15129
aI3702
aa(lp1926
g104
ag3
aF6472.14
aI15139
aI3702
aa(lp1927
g104
ag3
aF6476.18
aI15148
aI3702
aa(lp1928
g104
ag3
aF6479.76
aI15157
aI3702
aa(lp1929
g104
ag3
aF6483.48
aI15166
aI3702
aa(lp1930
g104
ag3
aF6487.33
aI15176
aI3702
aa(lp1931
g104
ag3
aF6490.74
aI15184
aI3702
aa(lp1932
g104
ag3
aF6494.71
aI15194
aI3702
aa(lp1933
g104
ag3
aF6497.38
aI15200
aI3702
aa(lp1934
g104
ag3
aF6500.79
aI15208
aI3702
aa(lp1935
g104
ag3
aF6504.5
aI15217
aI3702
aa(lp1936
g104
ag3
aF6507.36
aI15223
aI3702
aa(lp1937
g104
ag3
aF6509.95
aI15229
aI3702
aa(lp1938
g104
ag3
aF6513.9
aI15238
aI3702
aa(lp1939
g104
ag3
aF6517.67
aI15247
aI3702
aa(lp1940
g104
ag3
aF6520.88
aI15254
aI3702
aa(lp1941
g104
ag3
aF6524.86
aI15263
aI3702
aa(lp1942
g104
ag3
aF6528.43
aI15271
aI3702
aa(lp1943
g104
ag3
aF6532.47
aI15281
aI3702
aa(lp1944
g104
ag3
aF6536.39
aI15290
aI3702
aa(lp1945
g104
ag3
aF6540.41
aI15300
aI3702
aa(lp1946
g104
ag3
aF6544.29
aI15309
aI3702
aa(lp1947
g104
ag3
aF6547.72
aI15318
aI3702
aa(lp1948
g104
ag3
aF6551.99
aI15328
aI3702
aa(lp1949
g104
ag3
aF6555.3
aI15335
aI3702
aa(lp1950
g104
ag3
aF6559.65
aI15345
aI3702
aa(lp1951
g104
ag3
aF6563.79
aI15355
aI3702
aa(lp1952
g104
ag3
aF6566.74
aI15362
aI3702
aa(lp1953
g104
ag3
aF6570.35
aI15370
aI3702
aa(lp1954
g104
ag3
aF6574.24
aI15379
aI3702
aa(lp1955
g104
ag3
aF6577.69
aI15387
aI3702
aa(lp1956
g104
ag3
aF6581.67
aI15396
aI3702
aa(lp1957
g104
ag3
aF6585.58
aI15405
aI3702
aa(lp1958
g104
ag3
aF6589.46
aI15414
aI3702
aa(lp1959
g104
ag3
aF6593.18
aI15423
aI3702
aa(lp1960
g104
ag3
aF6597.35
aI15433
aI3702
aa(lp1961
g104
ag3
aF6601.14
aI15442
aI3702
aa(lp1962
g104
ag3
aF6605.16
aI15451
aI3702
aa(lp1963
g104
ag3
aF6608.37
aI15458
aI3702
aa(lp1964
g104
ag3
aF6612.4
aI15467
aI3702
aa(lp1965
g104
ag3
aF6615.98
aI15475
aI3702
aa(lp1966
g104
ag3
aF6618.6
aI15480
aI3702
aa(lp1967
g104
ag3
aF6622.84
aI15490
aI3702
aa(lp1968
g104
ag3
aF6626.23
aI15497
aI3702
aa(lp1969
g104
ag3
aF6630.51
aI15507
aI3702
aa(lp1970
g104
ag3
aF6634.58
aI15516
aI3702
aa(lp1971
g104
ag3
aF6639.05
aI15526
aI3702
aa(lp1972
g104
ag3
aF6643.23
aI15536
aI3702
aa(lp1973
g104
ag3
aF6646.86
aI15545
aI3702
aa(lp1974
g104
ag3
aF6650.3
aI15553
aI3702
aa(lp1975
g104
ag3
aF6653.55
aI15560
aI3702
aa(lp1976
g104
ag3
aF6657.38
aI15569
aI3702
aa(lp1977
g104
ag3
aF6661.39
aI15578
aI3702
aa(lp1978
g104
ag3
aF6666.04
aI15586
aI3775
aa(lp1979
g104
ag3
aF6669.5
aI15592
aI3779
aa(lp1980
g104
ag3
aF6672.41
aI15598
aI3833
aa(lp1981
g104
ag3
aF6676.22
aI15606
aI3833
aa(lp1982
g104
ag3
aF6679.34
aI15612
aI3833
aa(lp1983
g104
ag3
aF6682.26
aI15618
aI3834
aa(lp1984
g104
ag3
aF6686.48
aI15627
aI3834
aa(lp1985
g104
ag3
aF6689.7
aI15634
aI3834
aa(lp1986
g104
ag3
aF6693.66
aI15642
aI3834
aa(lp1987
g104
ag3
aF6696.73
aI15648
aI3834
aa(lp1988
g104
ag3
aF6700.24
aI15655
aI3834
aa(lp1989
g104
ag3
aF6703.66
aI15662
aI3834
aa(lp1990
g104
ag3
aF6707.34
aI15669
aI3834
aa(lp1991
g104
ag3
aF6711.22
aI15677
aI3834
aa(lp1992
g104
ag3
aF6715.24
aI15686
aI3834
aa(lp1993
g104
ag3
aF6718.76
aI15694
aI3834
aa(lp1994
g104
ag3
aF6722.27
aI15702
aI3834
aa(lp1995
g104
ag3
aF6725.56
aI15708
aI3834
aa(lp1996
g104
ag3
aF6729.26
aI15715
aI3834
aa(lp1997
g104
ag3
aF6732.68
aI15722
aI3834
aa(lp1998
g104
ag3
aF6736.94
aI15732
aI3834
aa(lp1999
g104
ag3
aF6740.32
aI15738
aI3834
aa(lp2000
g104
ag3
aF6743.8
aI15746
aI3834
aa(lp2001
g104
ag3
aF6747.67
aI15755
aI3834
aa(lp2002
g104
ag3
aF6751.77
aI15764
aI3834
aa(lp2003
g104
ag3
aF6755.71
aI15771
aI3834
aa(lp2004
g104
ag3
aF6758.86
aI15777
aI3834
aa(lp2005
g104
ag3
aF6762.51
aI15784
aI3834
aa(lp2006
g104
ag3
aF6766.14
aI15792
aI3834
aa(lp2007
g104
ag3
aF6769.75
aI15800
aI3834
aa(lp2008
g104
ag3
aF6772.71
aI15805
aI3834
aa(lp2009
g104
ag3
aF6776.72
aI15814
aI3834
aa(lp2010
g104
ag3
aF6779.7
aI15820
aI3834
aa(lp2011
g104
ag3
aF6783.36
aI15828
aI3834
aa(lp2012
g104
ag3
aF6788.11
aI15837
aI3834
aa(lp2013
g104
ag3
aF6792.28
aI15846
aI3834
aa(lp2014
g104
ag3
aF6795.98
aI15854
aI3834
aa(lp2015
g104
ag3
aF6799.09
aI15861
aI3834
aa(lp2016
g104
ag3
aF6803.26
aI15870
aI3834
aa(lp2017
g104
ag3
aF6807.51
aI15880
aI3834
aa(lp2018
g104
ag3
aF6811.33
aI15889
aI3834
aa(lp2019
g104
ag3
aF6815.58
aI15899
aI3834
aa(lp2020
g104
ag3
aF6819.67
aI15908
aI3834
aa(lp2021
g104
ag3
aF6823.78
aI15917
aI3834
aa(lp2022
g104
ag3
aF6827.96
aI15927
aI3834
aa(lp2023
g104
ag3
aF6830.96
aI15932
aI3834
aa(lp2024
g104
ag3
aF6835.14
aI15941
aI3834
aa(lp2025
g104
ag3
aF6838.78
aI15948
aI3834
aa(lp2026
g104
ag3
aF6842.78
aI15957
aI3834
aa(lp2027
g104
ag3
aF6846.56
aI15966
aI3834
aa(lp2028
g104
ag3
aF6850.65
aI15974
aI3834
aa(lp2029
g104
ag3
aF6854.04
aI15981
aI3834
aa(lp2030
g104
ag3
aF6857.38
aI15987
aI3834
aa(lp2031
g104
ag3
aF6861.75
aI15997
aI3834
aa(lp2032
g104
ag3
aF6865.22
aI16003
aI3834
aa(lp2033
g104
ag3
aF6868.01
aI16009
aI3834
aa(lp2034
g104
ag3
aF6872.25
aI16019
aI3834
aa(lp2035
g104
ag3
aF6876.0
aI16028
aI3834
aa(lp2036
g104
ag3
aF6879.88
aI16036
aI3834
aa(lp2037
g104
ag3
aF6883.9
aI16044
aI3834
aa(lp2038
g104
ag3
aF6887.69
aI16053
aI3834
aa(lp2039
g104
ag3
aF6891.58
aI16062
aI3834
aa(lp2040
g104
ag3
aF6895.45
aI16070
aI3834
aa(lp2041
g104
ag3
aF6899.13
aI16078
aI3834
aa(lp2042
g104
ag3
aF6903.49
aI16088
aI3834
aa(lp2043
g104
ag3
aF6906.73
aI16094
aI3834
aa(lp2044
g104
ag3
aF6910.61
aI16103
aI3834
aa(lp2045
g104
ag3
aF6914.36
aI16110
aI3834
aa(lp2046
g104
ag3
aF6918.04
aI16119
aI3834
aa(lp2047
g104
ag3
aF6922.21
aI16129
aI3834
aa(lp2048
g104
ag3
aF6925.66
aI16136
aI3834
aa(lp2049
g104
ag3
aF6928.61
aI16141
aI3834
aa(lp2050
g104
ag3
aF6932.41
aI16149
aI3834
aa(lp2051
g104
ag3
aF6936.5
aI16159
aI3834
aa(lp2052
g104
ag3
aF6940.72
aI16169
aI3834
aa(lp2053
g104
ag3
aF6944.18
aI16176
aI3834
aa(lp2054
g104
ag3
aF6947.99
aI16184
aI3834
aa(lp2055
g104
ag3
aF6951.43
aI16191
aI3834
aa(lp2056
g104
ag3
aF6955.61
aI16200
aI3834
aa(lp2057
g104
ag3
aF6958.78
aI16206
aI3834
aa(lp2058
g104
ag3
aF6962.93
aI16216
aI3834
aa(lp2059
g104
ag3
aF6965.8
aI16221
aI3834
aa(lp2060
g104
ag3
aF6969.34
aI16228
aI3834
aa(lp2061
g104
ag3
aF6972.72
aI16235
aI3834
aa(lp2062
g104
ag3
aF6976.45
aI16243
aI3834
aa(lp2063
g104
ag3
aF6980.75
aI16253
aI3834
aa(lp2064
g104
ag3
aF6984.22
aI16260
aI3834
aa(lp2065
g104
ag3
aF6988.45
aI16269
aI3835
aa(lp2066
g104
ag3
aF6992.44
aI16278
aI3838
aa(lp2067
g104
ag3
aF6995.96
aI16286
aI3840
aa(lp2068
g104
ag3
aF7000.0
aI16296
aI3842
aa(lp2069
g104
ag3
aF7004.14
aI16306
aI3842
aa(lp2070
g104
ag3
aF7008.49
aI16316
aI3842
aa(lp2071
g104
ag3
aF7012.42
aI16325
aI3842
aa(lp2072
g104
ag3
aF7016.4
aI16334
aI3842
aa(lp2073
g104
ag3
aF7019.7
aI16342
aI3842
aa(lp2074
g104
ag3
aF7023.2
aI16350
aI3842
aa(lp2075
g104
ag3
aF7026.76
aI16358
aI3842
aa(lp2076
g104
ag3
aF7030.4
aI16366
aI3842
aa(lp2077
g104
ag3
aF7034.12
aI16374
aI3842
aa(lp2078
g104
ag3
aF7037.92
aI16383
aI3842
aa(lp2079
g104
ag3
aF7041.4
aI16390
aI3842
aa(lp2080
g104
ag3
aF7045.41
aI16400
aI3842
aa(lp2081
g104
ag3
aF7049.27
aI16409
aI3842
aa(lp2082
g104
ag3
aF7053.19
aI16418
aI3842
aa(lp2083
g104
ag3
aF7057.05
aI16427
aI3842
aa(lp2084
g104
ag3
aF7059.88
aI16433
aI3842
aa(lp2085
g104
ag3
aF7063.72
aI16442
aI3842
aa(lp2086
g104
ag3
aF7067.97
aI16452
aI3842
aa(lp2087
g104
ag3
aF7071.82
aI16461
aI3842
aa(lp2088
g104
ag3
aF7074.91
aI16468
aI3842
aa(lp2089
g104
ag3
aF7078.92
aI16477
aI3842
aa(lp2090
g104
ag3
aF7083.15
aI16487
aI3842
aa(lp2091
g104
ag3
aF7086.99
aI16496
aI3842
aa(lp2092
g104
ag3
aF7090.92
aI16505
aI3842
aa(lp2093
g104
ag3
aF7094.46
aI16512
aI3842
aa(lp2094
g104
ag3
aF7098.34
aI16521
aI3842
aa(lp2095
g104
ag3
aF7102.23
aI16530
aI3842
aa(lp2096
g104
ag3
aF7105.58
aI16538
aI3842
aa(lp2097
g104
ag3
aF7108.46
aI16544
aI3842
aa(lp2098
g104
ag3
aF7111.54
aI16551
aI3842
aa(lp2099
g104
ag3
aF7114.89
aI16558
aI3842
aa(lp2100
g104
ag3
aF7118.19
aI16566
aI3842
aa(lp2101
g104
ag3
aF7121.87
aI16575
aI3842
aa(lp2102
g104
ag3
aF7125.65
aI16584
aI3842
aa(lp2103
g104
ag3
aF7129.44
aI16593
aI3842
aa(lp2104
g104
ag3
aF7133.69
aI16603
aI3842
aa(lp2105
g104
ag3
aF7137.88
aI16613
aI3842
aa(lp2106
g104
ag3
aF7140.76
aI16619
aI3842
aa(lp2107
g104
ag3
aF7144.95
aI16629
aI3842
aa(lp2108
g104
ag3
aF7148.95
aI16638
aI3842
aa(lp2109
g104
ag3
aF7153.01
aI16647
aI3842
aa(lp2110
g104
ag3
aF7156.41
aI16655
aI3842
aa(lp2111
g104
ag3
aF7159.92
aI16663
aI3842
aa(lp2112
g104
ag3
aF7163.92
aI16672
aI3842
aa(lp2113
g104
ag3
aF7167.5
aI16680
aI3842
aa(lp2114
g104
ag3
aF7171.86
aI16690
aI3842
aa(lp2115
g104
ag3
aF7175.65
aI16699
aI3842
aa(lp2116
g104
ag3
aF7179.23
aI16707
aI3842
aa(lp2117
g104
ag3
aF7183.08
aI16716
aI3842
aa(lp2118
g104
ag3
aF7186.59
aI16724
aI3842
aa(lp2119
g104
ag3
aF7190.53
aI16733
aI3842
aa(lp2120
g104
ag3
aF7194.02
aI16741
aI3842
aa(lp2121
g104
ag3
aF7197.97
aI16750
aI3842
aa(lp2122
g104
ag3
aF7201.4
aI16758
aI3842
aa(lp2123
g104
ag3
aF7204.63
aI16765
aI3842
aa(lp2124
g104
ag3
aF7208.88
aI16775
aI3842
aa(lp2125
g104
ag3
aF7212.56
aI16783
aI3842
aa(lp2126
g104
ag3
aF7215.65
aI16790
aI3842
aa(lp2127
g104
ag3
aF7219.59
aI16799
aI3842
aa(lp2128
g104
ag3
aF7223.39
aI16808
aI3842
aa(lp2129
g104
ag3
aF7227.05
aI16816
aI3842
aa(lp2130
g104
ag3
aF7230.83
aI16825
aI3842
aa(lp2131
g104
ag3
aF7234.86
aI16835
aI3842
aa(lp2132
g104
ag3
aF7238.42
aI16843
aI3842
aa(lp2133
g104
ag3
aF7241.87
aI16851
aI3842
aa(lp2134
g104
ag3
aF7245.76
aI16860
aI3842
aa(lp2135
g104
ag3
aF7249.17
aI16867
aI3842
aa(lp2136
g104
ag3
aF7253.06
aI16876
aI3842
aa(lp2137
g104
ag3
aF7257.41
aI16886
aI3842
aa(lp2138
g104
ag3
aF7261.18
aI16895
aI3842
aa(lp2139
g104
ag3
aF7264.6
aI16902
aI3842
aa(lp2140
g104
ag3
aF7268.45
aI16910
aI3842
aa(lp2141
g104
ag3
aF7271.6
aI16917
aI3842
aa(lp2142
g104
ag3
aF7275.65
aI16927
aI3842
aa(lp2143
g104
ag3
aF7279.03
aI16934
aI3842
aa(lp2144
g104
ag3
aF7282.89
aI16943
aI3842
aa(lp2145
g104
ag3
aF7286.69
aI16952
aI3842
aa(lp2146
g104
ag3
aF7290.69
aI16962
aI3842
aa(lp2147
g104
ag3
aF7293.71
aI16969
aI3842
aa(lp2148
g104
ag3
aF7297.46
aI16978
aI3842
aa(lp2149
g104
ag3
aF7300.2
aI16984
aI3842
aa(lp2150
g104
ag3
aF7304.07
aI16993
aI3842
aa(lp2151
g104
ag3
aF7307.77
aI17002
aI3842
aa(lp2152
g104
ag3
aF7311.83
aI17012
aI3842
aa(lp2153
g104
ag3
aF7315.34
aI17021
aI3842
aa(lp2154
g104
ag3
aF7318.99
aI17030
aI3842
aa(lp2155
g104
ag3
aF7322.92
aI17040
aI3842
aa(lp2156
g104
ag3
aF7326.72
aI17050
aI3842
aa(lp2157
g104
ag3
aF7330.01
aI17058
aI3842
aa(lp2158
g104
ag3
aF7332.72
aI17064
aI3842
aa(lp2159
g104
ag3
aF7336.36
aI17073
aI3842
aa(lp2160
g104
ag3
aF7339.35
aI17080
aI3842
aa(lp2161
g104
ag3
aF7343.26
aI17090
aI3842
aa(lp2162
g104
ag3
aF7346.49
aI17097
aI3842
aa(lp2163
g104
ag3
aF7350.41
aI17107
aI3842
aa(lp2164
g104
ag3
aF7353.08
aI17113
aI3842
aa(lp2165
g104
ag3
aF7356.48
aI17121
aI3842
aa(lp2166
g104
ag3
aF7359.34
aI17127
aI3842
aa(lp2167
g104
ag3
aF7362.49
aI17134
aI3842
aa(lp2168
g104
ag3
aF7365.64
aI17141
aI3842
aa(lp2169
g104
ag3
aF7369.37
aI17151
aI3842
aa(lp2170
g104
ag3
aF7372.72
aI17159
aI3842
aa(lp2171
g104
ag3
aF7376.36
aI17168
aI3842
aa(lp2172
g104
ag3
aF7379.88
aI17177
aI3842
aa(lp2173
g104
ag3
aF7383.33
aI17186
aI3842
aa(lp2174
g104
ag3
aF7386.93
aI17195
aI3842
aa(lp2175
g104
ag3
aF7390.21
aI17203
aI3842
aa(lp2176
g104
ag3
aF7394.07
aI17213
aI3842
aa(lp2177
g104
ag3
aF7397.44
aI17221
aI3842
aa(lp2178
g104
ag3
aF7401.15
aI17230
aI3842
aa(lp2179
g104
ag3
aF7404.57
aI17238
aI3842
aa(lp2180
g104
ag3
aF7408.49
aI17247
aI3842
aa(lp2181
g104
ag3
aF7412.36
aI17257
aI3842
aa(lp2182
g104
ag3
aF7415.36
aI17264
aI3842
aa(lp2183
g104
ag3
aF7418.71
aI17272
aI3842
aa(lp2184
g104
ag3
aF7422.62
aI17281
aI3842
aa(lp2185
g104
ag3
aF7426.18
aI17289
aI3842
aa(lp2186
g104
ag3
aF7430.17
aI17299
aI3842
aa(lp2187
g104
ag3
aF7433.88
aI17308
aI3842
aa(lp2188
g104
ag3
aF7437.32
aI17316
aI3842
aa(lp2189
g104
ag3
aF7441.18
aI17326
aI3842
aa(lp2190
g104
ag3
aF7444.62
aI17334
aI3842
aa(lp2191
g104
ag3
aF7448.67
aI17344
aI3842
aa(lp2192
g104
ag3
aF7452.53
aI17354
aI3842
aa(lp2193
g104
ag3
aF7455.54
aI17360
aI3842
aa(lp2194
g104
ag3
aF7459.11
aI17369
aI3842
aa(lp2195
g104
ag3
aF7462.6
aI17376
aI3842
aa(lp2196
g104
ag3
aF7465.63
aI17383
aI3842
aa(lp2197
g104
ag3
aF7469.68
aI17393
aI3842
aa(lp2198
g104
ag3
aF7473.58
aI17403
aI3842
aa(lp2199
g104
ag3
aF7477.27
aI17412
aI3842
aa(lp2200
g104
ag3
aF7481.27
aI17422
aI3842
aa(lp2201
g104
ag3
aF7484.93
aI17431
aI3842
aa(lp2202
g104
ag3
aF7488.73
aI17440
aI3842
aa(lp2203
g104
ag3
aF7492.48
aI17449
aI3842
aa(lp2204
g104
ag3
aF7495.47
aI17456
aI3842
aa(lp2205
g104
ag3
aF7499.24
aI17465
aI3842
aa(lp2206
g104
ag3
aF7503.07
aI17474
aI3842
aa(lp2207
g104
ag3
aF7506.84
aI17483
aI3842
aa(lp2208
g104
ag3
aF7509.85
aI17490
aI3842
aa(lp2209
g104
ag3
aF7512.9
aI17497
aI3842
aa(lp2210
g104
ag3
aF7516.19
aI17505
aI3842
aa(lp2211
g104
ag3
aF7518.89
aI17511
aI3842
aa(lp2212
g104
ag3
aF7522.15
aI17518
aI3842
aa(lp2213
g104
ag3
aF7524.93
aI17524
aI3842
aa(lp2214
g104
ag3
aF7529.31
aI17532
aI3842
aa(lp2215
g104
ag3
aF7532.64
aI17540
aI3842
aa(lp2216
g104
ag3
aF7535.74
aI17547
aI3842
aa(lp2217
g104
ag3
aF7538.43
aI17552
aI3842
aa(lp2218
g104
ag3
aF7541.68
aI17559
aI3842
aa(lp2219
g104
ag3
aF7545.5
aI17568
aI3842
aa(lp2220
g104
ag3
aF7549.09
aI17576
aI3842
aa(lp2221
g104
ag3
aF7552.71
aI17584
aI3842
aa(lp2222
g104
ag3
aF7556.63
aI17593
aI3842
aa(lp2223
g104
ag3
aF7560.35
aI17602
aI3842
aa(lp2224
g104
ag3
aF7563.49
aI17609
aI3842
aa(lp2225
g104
ag3
aF7566.59
aI17615
aI3842
aa(lp2226
g104
ag3
aF7569.96
aI17622
aI3842
aa(lp2227
g104
ag3
aF7573.87
aI17631
aI3842
aa(lp2228
g104
ag3
aF7577.42
aI17639
aI3842
aa(lp2229
g104
ag3
aF7581.03
aI17648
aI3842
aa(lp2230
g104
ag3
aF7584.86
aI17657
aI3842
aa(lp2231
g104
ag3
aF7588.57
aI17666
aI3842
aa(lp2232
g104
ag3
aF7592.44
aI17675
aI3842
aa(lp2233
g104
ag3
aF7596.24
aI17684
aI3842
aa(lp2234
g104
ag3
aF7600.14
aI17693
aI3842
aa(lp2235
g104
ag3
aF7604.15
aI17703
aI3842
aa(lp2236
g104
ag3
aF7608.11
aI17712
aI3842
aa(lp2237
g104
ag3
aF7611.96
aI17721
aI3842
aa(lp2238
g104
ag3
aF7615.87
aI17730
aI3842
aa(lp2239
g104
ag3
aF7619.73
aI17739
aI3842
aa(lp2240
g104
ag3
aF7623.76
aI17749
aI3842
aa(lp2241
g104
ag3
aF7627.62
aI17757
aI3842
aa(lp2242
g104
ag3
aF7631.41
aI17766
aI3842
aa(lp2243
g104
ag3
aF7634.62
aI17773
aI3842
aa(lp2244
g104
ag3
aF7638.88
aI17783
aI3842
aa(lp2245
g104
ag3
aF7643.15
aI17793
aI3842
aa(lp2246
g104
ag3
aF7646.71
aI17801
aI3842
aa(lp2247
g104
ag3
aF7650.24
aI17809
aI3842
aa(lp2248
g104
ag3
aF7653.88
aI17817
aI3842
aa(lp2249
g104
ag3
aF7657.68
aI17826
aI3842
aa(lp2250
g104
ag3
aF7661.45
aI17835
aI3842
aa(lp2251
g104
ag3
aF7664.77
aI17843
aI3842
aa(lp2252
g104
ag3
aF7668.31
aI17851
aI3842
aa(lp2253
g104
ag3
aF7671.97
aI17860
aI3842
aa(lp2254
g104
ag3
aF7675.72
aI17869
aI3842
aa(lp2255
g104
ag3
aF7679.98
aI17879
aI3842
aa(lp2256
g104
ag3
aF7683.9
aI17888
aI3842
aa(lp2257
g104
ag3
aF7687.35
aI17895
aI3842
aa(lp2258
g104
ag3
aF7690.86
aI17903
aI3842
aa(lp2259
g104
ag3
aF7694.71
aI17911
aI3842
aa(lp2260
g104
ag3
aF7698.94
aI17921
aI3842
aa(lp2261
g104
ag3
aF7703.12
aI17931
aI3842
aa(lp2262
g104
ag3
aF7706.78
aI17938
aI3842
aa(lp2263
g104
ag3
aF7710.79
aI17947
aI3842
aa(lp2264
g104
ag3
aF7714.22
aI17955
aI3842
aa(lp2265
g104
ag3
aF7717.67
aI17962
aI3842
aa(lp2266
g104
ag3
aF7721.17
aI17970
aI3842
aa(lp2267
g104
ag3
aF7724.74
aI17978
aI3842
aa(lp2268
g104
ag3
aF7728.6
aI17987
aI3842
aa(lp2269
g104
ag3
aF7732.4
aI17996
aI3842
aa(lp2270
g104
ag3
aF7736.19
aI18005
aI3842
aa(lp2271
g104
ag3
aF7739.6
aI18013
aI3842
aa(lp2272
g104
ag3
aF7743.84
aI18023
aI3842
aa(lp2273
g104
ag3
aF7747.0
aI18029
aI3842
aa(lp2274
g104
ag3
aF7750.57
aI18037
aI3842
aa(lp2275
g104
ag3
aF7754.55
aI18047
aI3842
aa(lp2276
g104
ag3
aF7758.43
aI18056
aI3842
aa(lp2277
g104
ag3
aF7762.41
aI18066
aI3842
aa(lp2278
g104
ag3
aF7766.62
aI18076
aI3842
aa(lp2279
g104
ag3
aF7770.81
aI18086
aI3842
aa(lp2280
g104
ag3
aF7774.92
aI18096
aI3842
aa(lp2281
g104
ag3
aF7778.62
aI18105
aI3842
aa(lp2282
g104
ag3
aF7782.37
aI18114
aI3842
aa(lp2283
g104
ag3
aF7786.24
aI18123
aI3842
aa(lp2284
g104
ag3
aF7790.41
aI18133
aI3842
aa(lp2285
g104
ag3
aF7794.16
aI18142
aI3842
aa(lp2286
g104
ag3
aF7798.02
aI18151
aI3842
aa(lp2287
g104
ag3
aF7801.11
aI18158
aI3842
aa(lp2288
g104
ag3
aF7804.49
aI18166
aI3842
aa(lp2289
g104
ag3
aF7808.04
aI18174
aI3842
aa(lp2290
g104
ag3
aF7811.61
aI18182
aI3842
aa(lp2291
g104
ag3
aF7815.5
aI18191
aI3842
aa(lp2292
g104
ag3
aF7818.99
aI18199
aI3842
aa(lp2293
g104
ag3
aF7822.57
aI18207
aI3842
aa(lp2294
g104
ag3
aF7825.67
aI18214
aI3842
aa(lp2295
g104
ag3
aF7829.89
aI18224
aI3842
aa(lp2296
g104
ag3
aF7833.4
aI18232
aI3842
aa(lp2297
g104
ag3
aF7836.96
aI18240
aI3842
aa(lp2298
g104
ag3
aF7840.84
aI18249
aI3842
aa(lp2299
g104
ag3
aF7844.62
aI18258
aI3842
aa(lp2300
g104
ag3
aF7848.03
aI18266
aI3842
aa(lp2301
g104
ag3
aF7850.45
aI18271
aI3842
aa(lp2302
g104
ag3
aF7854.29
aI18280
aI3842
aa(lp2303
g104
ag3
aF7857.89
aI18289
aI3842
aa(lp2304
g104
ag3
aF7861.36
aI18297
aI3842
aa(lp2305
g104
ag3
aF7864.69
aI18304
aI3842
aa(lp2306
g104
ag3
aF7868.09
aI18311
aI3842
aa(lp2307
g104
ag3
aF7871.56
aI18319
aI3842
aa(lp2308
g104
ag3
aF7875.43
aI18328
aI3842
aa(lp2309
g104
ag3
aF7878.8
aI18335
aI3842
aa(lp2310
g104
ag3
aF7882.22
aI18342
aI3842
aa(lp2311
g104
ag3
aF7886.32
aI18352
aI3842
aa(lp2312
g104
ag3
aF7889.66
aI18360
aI3842
aa(lp2313
g104
ag3
aF7893.6
aI18369
aI3842
aa(lp2314
g104
ag3
aF7896.78
aI18376
aI3842
aa(lp2315
g104
ag3
aF7900.39
aI18384
aI3842
aa(lp2316
g104
ag3
aF7903.72
aI18391
aI3842
aa(lp2317
g104
ag3
aF7906.74
aI18398
aI3842
aa(lp2318
g104
ag3
aF7909.63
aI18404
aI3842
aa(lp2319
g104
ag3
aF7913.76
aI18413
aI3842
aa(lp2320
g104
ag3
aF7917.62
aI18422
aI3842
aa(lp2321
g104
ag3
aF7921.25
aI18430
aI3842
aa(lp2322
g104
ag3
aF7925.49
aI18440
aI3842
aa(lp2323
g104
ag3
aF7929.04
aI18448
aI3842
aa(lp2324
g104
ag3
aF7932.87
aI18457
aI3842
aa(lp2325
g104
ag3
aF7936.65
aI18466
aI3842
aa(lp2326
g104
ag3
aF7940.12
aI18474
aI3842
aa(lp2327
g104
ag3
aF7944.11
aI18483
aI3842
aa(lp2328
g104
ag3
aF7947.3
aI18490
aI3842
aa(lp2329
g104
ag3
aF7950.83
aI18498
aI3842
aa(lp2330
g104
ag3
aF7954.14
aI18505
aI3842
aa(lp2331
g104
ag3
aF7957.68
aI18513
aI3842
aa(lp2332
g104
ag3
aF7961.25
aI18521
aI3842
aa(lp2333
g104
ag3
aF7964.53
aI18528
aI3842
aa(lp2334
g104
ag3
aF7967.57
aI18534
aI3842
aa(lp2335
g104
ag3
aF7971.79
aI18544
aI3842
aa(lp2336
g104
ag3
aF7975.21
aI18552
aI3842
aa(lp2337
g104
ag3
aF7978.78
aI18560
aI3842
aa(lp2338
g104
ag3
aF7982.32
aI18568
aI3842
aa(lp2339
g104
ag3
aF7986.27
aI18577
aI3842
aa(lp2340
g104
ag3
aF7989.82
aI18585
aI3842
aa(lp2341
g104
ag3
aF7993.69
aI18594
aI3842
aa(lp2342
g104
ag3
aF7997.66
aI18603
aI3842
aa(lp2343
g104
ag3
aF8001.05
aI18610
aI3842
aa(lp2344
g104
ag3
aF8004.78
aI18619
aI3842
aa(lp2345
g104
ag3
aF8008.61
aI18628
aI3842
aa(lp2346
g104
ag3
aF8012.66
aI18637
aI3842
aa(lp2347
g104
ag3
aF8016.07
aI18644
aI3842
aa(lp2348
g104
ag3
aF8019.68
aI18652
aI3842
aa(lp2349
g104
ag3
aF8023.56
aI18661
aI3842
aa(lp2350
g104
ag3
aF8027.5
aI18670
aI3842
aa(lp2351
g104
ag3
aF8031.76
aI18680
aI3842
aa(lp2352
g104
ag3
aF8035.54
aI18689
aI3842
aa(lp2353
g104
ag3
aF8039.72
aI18698
aI3842
aa(lp2354
g104
ag3
aF8043.25
aI18706
aI3842
aa(lp2355
g104
ag3
aF8047.47
aI18716
aI3842
aa(lp2356
g104
ag3
aF8050.72
aI18723
aI3842
aa(lp2357
g104
ag3
aF8054.34
aI18731
aI3842
aa(lp2358
g104
ag3
aF8058.56
aI18741
aI3842
aa(lp2359
g104
ag3
aF8062.69
aI18750
aI3842
aa(lp2360
g104
ag3
aF8066.71
aI18760
aI3842
aa(lp2361
g104
ag3
aF8070.21
aI18768
aI3842
aa(lp2362
g104
ag3
aF8073.99
aI18777
aI3842
aa(lp2363
g104
ag3
aF8077.53
aI18785
aI3842
aa(lp2364
g104
ag3
aF8080.59
aI18792
aI3842
aa(lp2365
g104
ag3
aF8083.83
aI18799
aI3842
aa(lp2366
g104
ag3
aF8087.8
aI18807
aI3842
aa(lp2367
g104
ag3
aF8091.71
aI18816
aI3842
aa(lp2368
g104
ag3
aF8095.44
aI18825
aI3842
aa(lp2369
g104
ag3
aF8098.88
aI18833
aI3842
aa(lp2370
g104
ag3
aF8102.22
aI18840
aI3842
aa(lp2371
g104
ag3
aF8106.03
aI18849
aI3842
aa(lp2372
g104
ag3
aF8109.78
aI18858
aI3842
aa(lp2373
g104
ag3
aF8113.23
aI18866
aI3842
aa(lp2374
g104
ag3
aF8117.31
aI18876
aI3842
aa(lp2375
g104
ag3
aF8121.45
aI18885
aI3842
aa(lp2376
g104
ag3
aF8125.06
aI18893
aI3842
aa(lp2377
g104
ag3
aF8128.31
aI18900
aI3842
aa(lp2378
g104
ag3
aF8131.94
aI18908
aI3842
aa(lp2379
g104
ag3
aF8135.34
aI18916
aI3842
aa(lp2380
g104
ag3
aF8138.3
aI18922
aI3842
aa(lp2381
g104
ag3
aF8141.81
aI18930
aI3842
aa(lp2382
g104
ag3
aF8145.62
aI18939
aI3842
aa(lp2383
g104
ag3
aF8149.89
aI18949
aI3842
aa(lp2384
g104
ag3
aF8153.87
aI18958
aI3842
aa(lp2385
g104
ag3
aF8157.48
aI18966
aI3842
aa(lp2386
g104
ag3
aF8161.02
aI18974
aI3842
aa(lp2387
g104
ag3
aF8164.79
aI18983
aI3842
aa(lp2388
g104
ag3
aF8167.87
aI18989
aI3842
aa(lp2389
g104
ag3
aF8171.83
aI18998
aI3842
aa(lp2390
g104
ag3
aF8175.31
aI19006
aI3842
aa(lp2391
g104
ag3
aF8177.81
aI19011
aI3842
aa(lp2392
g104
ag3
aF8181.13
aI19019
aI3842
aa(lp2393
g104
ag3
aF8184.7
aI19027
aI3842
aa(lp2394
g104
ag3
aF8188.75
aI19035
aI3842
aa(lp2395
g104
ag3
aF8192.32
aI19044
aI3842
aa(lp2396
g104
ag3
aF8195.14
aI19050
aI3842
aa(lp2397
g104
ag3
aF8199.26
aI19060
aI3842
aa(lp2398
g104
ag3
aF8202.88
aI19069
aI3842
aa(lp2399
g104
ag3
aF8206.03
aI19076
aI3842
aa(lp2400
g104
ag3
aF8209.18
aI19083
aI3842
aa(lp2401
g104
ag3
aF8212.96
aI19092
aI3842
aa(lp2402
g104
ag3
aF8216.61
aI19101
aI3842
aa(lp2403
g104
ag3
aF8220.89
aI19111
aI3842
aa(lp2404
g104
ag3
aF8224.51
aI19118
aI3842
aa(lp2405
g104
ag3
aF8228.32
aI19127
aI3842
aa(lp2406
g104
ag3
aF8231.81
aI19134
aI3842
aa(lp2407
g104
ag3
aF8235.24
aI19142
aI3842
aa(lp2408
g104
ag3
aF8239.01
aI19150
aI3842
aa(lp2409
g104
ag3
aF8242.46
aI19158
aI3842
aa(lp2410
g104
ag3
aF8245.49
aI19165
aI3842
aa(lp2411
g104
ag3
aF8249.01
aI19173
aI3842
aa(lp2412
g104
ag3
aF8252.79
aI19182
aI3842
aa(lp2413
g104
ag3
aF8256.12
aI19190
aI3842
aa(lp2414
g104
ag3
aF8259.31
aI19197
aI3842
aa(lp2415
g104
ag3
aF8262.44
aI19204
aI3842
aa(lp2416
g104
ag3
aF8266.65
aI19214
aI3842
aa(lp2417
g104
ag3
aF8269.86
aI19221
aI3842
aa(lp2418
g104
ag3
aF8273.15
aI19228
aI3842
aa(lp2419
g104
ag3
aF8276.54
aI19236
aI3842
aa(lp2420
g104
ag3
aF8280.23
aI19244
aI3842
aa(lp2421
g104
ag3
aF8284.47
aI19254
aI3842
aa(lp2422
g104
ag3
aF8287.34
aI19260
aI3842
aa(lp2423
g104
ag3
aF8290.89
aI19268
aI3842
aa(lp2424
g104
ag3
aF8293.65
aI19274
aI3842
aa(lp2425
g104
ag3
aF8297.2
aI19282
aI3842
aa(lp2426
g104
ag3
aF8300.54
aI19289
aI3842
aa(lp2427
g104
ag3
aF8304.05
aI19297
aI3842
aa(lp2428
g104
ag3
aF8307.11
aI19304
aI3842
aa(lp2429
g104
ag3
aF8310.59
aI19312
aI3842
aa(lp2430
g104
ag3
aF8313.92
aI19320
aI3842
aa(lp2431
g104
ag3
aF8317.39
aI19328
aI3842
aa(lp2432
g104
ag3
aF8320.79
aI19336
aI3842
aa(lp2433
g104
ag3
aF8323.69
aI19342
aI3842
aa(lp2434
g104
ag3
aF8327.17
aI19350
aI3842
aa(lp2435
g104
ag3
aF8329.95
aI19356
aI3842
aa(lp2436
g104
ag3
aF8332.87
aI19363
aI3842
aa(lp2437
g104
ag3
aF8336.77
aI19372
aI3842
aa(lp2438
g104
ag3
aF8340.6
aI19381
aI3842
aa(lp2439
g104
ag3
aF8344.09
aI19389
aI3842
aa(lp2440
g104
ag3
aF8347.87
aI19398
aI3842
aa(lp2441
g104
ag3
aF8351.09
aI19405
aI3842
aa(lp2442
g104
ag3
aF8355.35
aI19415
aI3842
aa(lp2443
g104
ag3
aF8358.74
aI19423
aI3842
aa(lp2444
g104
ag3
aF8362.47
aI19432
aI3842
aa(lp2445
g104
ag3
aF8364.97
aI19437
aI3842
aa(lp2446
g104
ag3
aF8369.1
aI19447
aI3842
aa(lp2447
g104
ag3
aF8373.06
aI19456
aI3842
aa(lp2448
g104
ag3
aF8376.51
aI19464
aI3842
aa(lp2449
g104
ag3
aF8380.46
aI19473
aI3842
aa(lp2450
g104
ag3
aF8383.86
aI19481
aI3842
aa(lp2451
g104
ag3
aF8387.0
aI19488
aI3842
aa(lp2452
g104
ag3
aF8390.51
aI19496
aI3842
aa(lp2453
g104
ag3
aF8394.11
aI19504
aI3842
aa(lp2454
g104
ag3
aF8397.78
aI19512
aI3842
aa(lp2455
g104
ag3
aF8401.99
aI19522
aI3842
aa(lp2456
g104
ag3
aF8405.76
aI19531
aI3842
aa(lp2457
g104
ag3
aF8409.87
aI19540
aI3842
aa(lp2458
g104
ag3
aF8414.16
aI19549
aI3842
aa(lp2459
g104
ag3
aF8417.73
aI19557
aI3842
aa(lp2460
g104
ag3
aF8421.63
aI19566
aI3842
aa(lp2461
g104
ag3
aF8425.45
aI19574
aI3842
aa(lp2462
g104
ag3
aF8428.85
aI19581
aI3842
aa(lp2463
g104
ag3
aF8432.86
aI19591
aI3842
aa(lp2464
g104
ag3
aF8436.24
aI19598
aI3842
aa(lp2465
g104
ag3
aF8440.0
aI19607
aI3842
aa(lp2466
g104
ag3
aF8443.42
aI19615
aI3842
aa(lp2467
g104
ag3
aF8447.19
aI19624
aI3842
aa(lp2468
g104
ag3
aF8451.21
aI19634
aI3842
aa(lp2469
g104
ag3
aF8454.98
aI19643
aI3842
aa(lp2470
g104
ag3
aF8458.44
aI19651
aI3842
aa(lp2471
g104
ag3
aF8462.35
aI19660
aI3842
aa(lp2472
g104
ag3
aF8465.41
aI19667
aI3842
aa(lp2473
g104
ag3
aF8469.17
aI19676
aI3842
aa(lp2474
g104
ag3
aF8472.8
aI19685
aI3842
aa(lp2475
g104
ag3
aF8476.68
aI19694
aI3842
aa(lp2476
g104
ag3
aF8480.4
aI19703
aI3842
aa(lp2477
g104
ag3
aF8483.62
aI19711
aI3842
aa(lp2478
g104
ag3
aF8487.33
aI19720
aI3842
aa(lp2479
g104
ag3
aF8491.49
aI19730
aI3842
aa(lp2480
g104
ag3
aF8495.59
aI19740
aI3842
aa(lp2481
g104
ag3
aF8500.06
aI19750
aI3842
aa(lp2482
g104
ag3
aF8502.98
aI19756
aI3842
aa(lp2483
g104
ag3
aF8506.81
aI19765
aI3842
aa(lp2484
g104
ag3
aF8510.45
aI19774
aI3842
aa(lp2485
g104
ag3
aF8514.34
aI19783
aI3842
aa(lp2486
g104
ag3
aF8518.24
aI19792
aI3842
aa(lp2487
g104
ag3
aF8521.93
aI19801
aI3842
aa(lp2488
g104
ag3
aF8525.49
aI19809
aI3842
aa(lp2489
g104
ag3
aF8528.91
aI19817
aI3842
aa(lp2490
g104
ag3
aF8532.63
aI19826
aI3842
aa(lp2491
g104
ag3
aF8536.34
aI19835
aI3842
aa(lp2492
g104
ag3
aF8539.52
aI19842
aI3842
aa(lp2493
g104
ag3
aF8543.03
aI19850
aI3842
aa(lp2494
g104
ag3
aF8546.42
aI19858
aI3842
aa(lp2495
g104
ag3
aF8550.28
aI19867
aI3842
aa(lp2496
g104
ag3
aF8554.05
aI19876
aI3842
aa(lp2497
g104
ag3
aF8557.73
aI19884
aI3842
aa(lp2498
g104
ag3
aF8561.69
aI19893
aI3842
aa(lp2499
g104
ag3
aF8565.53
aI19902
aI3842
aa(lp2500
g104
ag3
aF8569.49
aI19910
aI3842
aa(lp2501
g104
ag3
aF8573.03
aI19918
aI3842
aa(lp2502
g104
ag3
aF8576.26
aI19925
aI3842
aa(lp2503
g104
ag3
aF8580.09
aI19934
aI3842
aa(lp2504
g104
ag3
aF8584.02
aI19943
aI3842
aa(lp2505
g104
ag3
aF8586.99
aI19949
aI3842
aa(lp2506
g104
ag3
aF8590.37
aI19957
aI3842
aa(lp2507
g104
ag3
aF8593.85
aI19965
aI3842
aa(lp2508
g104
ag3
aF8597.98
aI19975
aI3842
aa(lp2509
g104
ag3
aF8601.62
aI19984
aI3842
aa(lp2510
g104
ag3
aF8605.69
aI19994
aI3842
aa(lp2511
g104
ag3
aF8609.68
aI20004
aI3842
aa(lp2512
g104
ag3
aF8613.48
aI20013
aI3842
aa(lp2513
g104
ag3
aF8616.32
aI20019
aI3842
aa(lp2514
g104
ag3
aF8620.1
aI20028
aI3842
aa.