(lp0
(lp1
S'me'
p2
aS'parity.sk_11_11.cnf'
p3
aF109.72
aI0
aI0
aa(lp4
g2
ag3
aF110.068
aI0
aI0
aa(lp5
g2
ag3
aF110.403
aI0
aI0
aa(lp6
g2
ag3
aF110.758
aI0
aI0
aa(lp7
g2
ag3
aF111.084
aI0
aI0
aa(lp8
g2
ag3
aF111.442
aI0
aI0
aa(lp9
g2
ag3
aF111.775
aI0
aI0
aa(lp10
g2
ag3
aF112.097
aI0
aI0
aa(lp11
g2
ag3
aF112.495
aI0
aI0
aa(lp12
g2
ag3
aF112.848
aI0
aI0
aa(lp13
g2
ag3
aF113.206
aI0
aI0
aa(lp14
g2
ag3
aF113.561
aI0
aI0
aa(lp15
g2
ag3
aF113.916
aI0
aI0
aa(lp16
g2
ag3
aF114.267
aI0
aI0
aa(lp17
g2
ag3
aF114.612
aI0
aI0
aa(lp18
g2
ag3
aF114.941
aI0
aI0
aa(lp19
g2
ag3
aF115.274
aI0
aI0
aa(lp20
g2
ag3
aF115.614
aI0
aI0
aa(lp21
g2
ag3
aF116.008
aI0
aI0
aa(lp22
g2
ag3
aF116.348
aI0
aI0
aa(lp23
g2
ag3
aF116.685
aI0
aI0
aa(lp24
g2
ag3
aF117.012
aI0
aI0
aa(lp25
g2
ag3
aF117.39
aI0
aI0
aa(lp26
g2
ag3
aF117.746
aI0
aI0
aa(lp27
g2
ag3
aF118.08
aI0
aI0
aa(lp28
g2
ag3
aF118.478
aI0
aI0
aa(lp29
g2
ag3
aF118.839
aI0
aI0
aa(lp30
g2
ag3
aF119.217
aI0
aI0
aa(lp31
g2
ag3
aF119.549
aI0
aI0
aa(lp32
g2
ag3
aF119.903
aI0
aI0
aa(lp33
g2
ag3
aF120.269
aI0
aI0
aa(lp34
g2
ag3
aF120.641
aI0
aI0
aa(lp35
g2
ag3
aF120.985
aI0
aI0
aa(lp36
g2
ag3
aF121.342
aI0
aI0
aa(lp37
g2
ag3
aF121.718
aI0
aI0
aa(lp38
g2
ag3
aF122.034
aI0
aI0
aa(lp39
g2
ag3
aF122.367
aI0
aI0
aa(lp40
g2
ag3
aF122.737
aI0
aI0
aa(lp41
g2
ag3
aF123.087
aI0
aI0
aa(lp42
g2
ag3
aF123.477
aI0
aI0
aa(lp43
g2
ag3
aF123.854
aI0
aI0
aa(lp44
g2
ag3
aF124.172
aI0
aI0
aa(lp45
g2
ag3
aF124.525
aI0
aI0
aa(lp46
g2
ag3
aF124.881
aI0
aI0
aa(lp47
g2
ag3
aF125.25
aI0
aI0
aa(lp48
g2
ag3
aF125.606
aI0
aI0
aa(lp49
g2
ag3
aF125.971
aI0
aI0
aa(lp50
g2
ag3
aF126.325
aI0
aI0
aa(lp51
g2
ag3
aF126.662
aI0
aI0
aa(lp52
g2
ag3
aF127.03
aI0
aI0
aa(lp53
g2
ag3
aF127.364
aI0
aI0
aa(lp54
g2
ag3
aF127.718
aI0
aI0
aa(lp55
g2
ag3
aF128.056
aI0
aI0
aa(lp56
g2
ag3
aF128.432
aI0
aI0
aa(lp57
g2
ag3
aF128.767
aI0
aI0
aa(lp58
g2
ag3
aF129.179
aI0
aI0
aa(lp59
g2
ag3
aF129.555
aI0
aI0
aa(lp60
g2
ag3
aF129.913
aI0
aI0
aa(lp61
g2
ag3
aF130.268
aI0
aI0
aa(lp62
g2
ag3
aF130.624
aI0
aI0
aa(lp63
g2
ag3
aF130.954
aI0
aI0
aa(lp64
g2
ag3
aF131.312
aI0
aI0
aa(lp65
g2
ag3
aF131.663
aI0
aI0
aa(lp66
g2
ag3
aF132.025
aI0
aI0
aa(lp67
g2
ag3
aF132.395
aI0
aI0
aa(lp68
g2
ag3
aF132.775
aI0
aI0
aa(lp69
g2
ag3
aF133.112
aI0
aI0
aa(lp70
g2
ag3
aF133.48
aI0
aI0
aa(lp71
g2
ag3
aF133.833
aI0
aI0
aa(lp72
g2
ag3
aF134.187
aI0
aI0
aa(lp73
g2
ag3
aF134.578
aI0
aI0
aa(lp74
g2
ag3
aF134.899
aI0
aI0
aa(lp75
g2
ag3
aF135.25
aI0
aI0
aa(lp76
g2
ag3
aF135.61
aI0
aI0
aa(lp77
g2
ag3
aF136.013
aI0
aI0
aa(lp78
g2
ag3
aF136.373
aI0
aI0
aa(lp79
g2
ag3
aF136.709
aI0
aI0
aa(lp80
g2
ag3
aF137.059
aI0
aI0
aa(lp81
g2
ag3
aF137.444
aI0
aI0
aa(lp82
g2
ag3
aF137.837
aI0
aI0
aa(lp83
g2
ag3
aF138.215
aI0
aI0
aa(lp84
g2
ag3
aF138.546
aI0
aI0
aa(lp85
g2
ag3
aF138.902
aI0
aI0
aa(lp86
g2
ag3
aF139.257
aI0
aI0
aa(lp87
g2
ag3
aF139.638
aI0
aI0
aa(lp88
g2
ag3
aF140.037
aI0
aI0
aa(lp89
g2
ag3
aF140.392
aI0
aI0
aa(lp90
g2
ag3
aF140.765
aI0
aI0
aa(lp91
g2
ag3
aF141.097
aI0
aI0
aa(lp92
g2
ag3
aF141.471
aI0
aI0
aa(lp93
g2
ag3
aF141.784
aI0
aI0
aa(lp94
g2
ag3
aF142.117
aI0
aI0
aa(lp95
g2
ag3
aF142.492
aI0
aI0
aa(lp96
g2
ag3
aF142.803
aI0
aI0
aa(lp97
g2
ag3
aF143.15
aI0
aI0
aa(lp98
g2
ag3
aF143.461
aI0
aI0
aa(lp99
g2
ag3
aF143.826
aI0
aI0
aa(lp100
g2
ag3
aF144.188
aI0
aI0
aa(lp101
g2
ag3
aF144.569
aI0
aI0
aa(lp102
g2
ag3
aF144.919
aI0
aI0
aa(lp103
S'qs'
p104
ag3
aF54.9475
aI8
aI5499
aa(lp105
g104
ag3
aF111.661
aI14
aI6932
aa(lp106
g104
ag3
aF209.308
aI21
aI7961
aa(lp107
g104
ag3
aF293.157
aI23
aI8146
aa(lp108
g104
ag3
aF357.875
aI29
aI8838
aa(lp109
g104
ag3
aF384.332
aI36
aI9219
aa(lp110
g104
ag3
aF447.752
aI40
aI9457
aa(lp111
g104
ag3
aF553.265
aI42
aI9595
aa(lp112
g104
ag3
aF583.801
aI42
aI9595
aa(lp113
g104
ag3
aF604.074
aI42
aI9595
aa(lp114
g104
ag3
aF620.687
aI42
aI9595
aa(lp115
g104
ag3
aF634.463
aI42
aI9595
aa(lp116
g104
ag3
aF734.595
aI42
aI9595
aa(lp117
g104
ag3
aF782.068
aI42
aI9595
aa(lp118
g104
ag3
aF976.947
aI42
aI9595
aa(lp119
g104
ag3
aF985.009
aI42
aI9595
aa(lp120
g104
ag3
aF1632.84
aI42
aI9595
aa(lp121
g104
ag3
aF1636.14
aI42
aI9595
aa(lp122
g104
ag3
aF2173.18
aI42
aI9595
aa(lp123
g104
ag3
aF2180.59
aI42
aI9595
aa(lp124
g104
ag3
aF2181.94
aI42
aI9595
aa(lp125
g104
ag3
aF2183.3
aI42
aI9595
aa(lp126
g104
ag3
aF2233.75
aI42
aI9595
aa(lp127
g104
ag3
aF2431.71
aI42
aI9595
aa(lp128
g104
ag3
aF2493.59
aI42
aI9595
aa(lp129
g104
ag3
aF2529.19
aI42
aI9595
aa(lp130
g104
ag3
aF2543.44
aI42
aI9595
aa(lp131
g104
ag3
aF2645.29
aI42
aI9595
aa(lp132
g104
ag3
aF2930.89
aI42
aI9595
aa(lp133
g104
ag3
aF2932.55
aI42
aI9595
aa(lp134
g104
ag3
aF2941.18
aI42
aI9595
aa(lp135
g104
ag3
aF3049.76
aI42
aI9595
aa(lp136
g104
ag3
aF3057.4
aI42
aI9595
aa(lp137
g104
ag3
aF3067.57
aI42
aI9595
aa(lp138
g104
ag3
aF3080.85
aI42
aI9595
aa(lp139
g104
ag3
aF3107.08
aI42
aI9595
aa(lp140
g104
ag3
aF3116.54
aI42
aI9595
aa(lp141
g104
ag3
aF3125.77
aI42
aI9595
aa(lp142
g104
ag3
aF3175.38
aI42
aI9595
aa(lp143
g104
ag3
aF3186.08
aI42
aI9595
aa(lp144
g104
ag3
aF3197.14
aI42
aI9595
aa(lp145
g104
ag3
aF3214.13
aI42
aI9595
aa(lp146
g104
ag3
aF3223.84
aI42
aI9595
aa(lp147
g104
ag3
aF3240.11
aI42
aI9595
aa(lp148
g104
ag3
aF3255.97
aI42
aI9595
aa(lp149
g104
ag3
aF3262.59
aI42
aI9595
aa(lp150
g104
ag3
aF3264.57
aI42
aI9595
aa(lp151
g104
ag3
aF3274.27
aI42
aI9595
aa(lp152
g104
ag3
aF3739.12
aI42
aI9595
aa(lp153
g104
ag3
aF3757.05
aI42
aI9595
aa(lp154
g104
ag3
aF3758.79
aI42
aI9595
aa(lp155
g104
ag3
aF3760.52
aI42
aI9595
aa(lp156
g104
ag3
aF3783.65
aI42
aI9595
aa(lp157
g104
ag3
aF3794.52
aI42
aI9595
aa(lp158
g104
ag3
aF3803.1
aI42
aI9595
aa(lp159
g104
ag3
aF3826.2
aI42
aI9595
aa(lp160
g104
ag3
aF3839.64
aI42
aI9595
aa(lp161
g104
ag3
aF3841.37
aI42
aI9595
aa(lp162
g104
ag3
aF3843.11
aI42
aI9595
aa(lp163
g104
ag3
aF3879.25
aI42
aI9595
aa(lp164
g104
ag3
aF3996.25
aI42
aI9595
aa(lp165
g104
ag3
aF4007.84
aI42
aI9595
aa(lp166
g104
ag3
aF4009.57
aI42
aI9595
aa(lp167
g104
ag3
aF4024.69
aI42
aI9595
aa(lp168
g104
ag3
aF4075.08
aI42
aI9595
aa(lp169
g104
ag3
aF4081.31
aI42
aI9595
aa(lp170
g104
ag3
aF4083.04
aI42
aI9595
aa(lp171
g104
ag3
aF4090.08
aI42
aI9595
aa(lp172
g104
ag3
aF4091.81
aI42
aI9595
aa(lp173
g104
ag3
aF4093.56
aI42
aI9595
aa(lp174
g104
ag3
aF4261.52
aI42
aI9595
aa.